0000                          c3 03 c0       JMP  c003
0003                          31 e0 8e       LXI  SP, 8ee0
0006                          3e 82          MVI  A, 82
0008                          32 03 ff       STA  (ff03)
000b                          c3 44 c4       JMP  c444
000e                          00             NOOP
000f                          00             NOOP
0010                          e5             PUSH HL
0011                          c5             PUSH BC
0012                          21 00 00       LXI  HL, 0000
0015                          39             DAD  SP
0016                          22 f6 8f       SHLD (8ff6)
0019                          31 00 c0       LXI  SP, c000
001c                          2a fa 8f       LHLD (8ffa
001f                          01 00 03       LXI  BC, 0300
0022                          e5             PUSH HL
0023                          e5             PUSH HL
0024                          e5             PUSH HL
0025                          e5             PUSH HL
0026                          e5             PUSH HL
0027                          e5             PUSH HL
0028                          e5             PUSH HL
0029                          e5             PUSH HL
002a                          0b             DCX  BC
002b                          78             MOV  A,B
002c                          b1             ORA  C
002d                          c2 22 c0       JNZ  c022
0030                          2a f6 8f       LHLD (8ff6
0033                          f9             SPHL
0034                          c1             POP  BC
0035                          e1             POP  HL
0036                          c9             RET
0037                          e5             PUSH HL
0038                          d5             PUSH DE
0039                          c5             PUSH BC
003a                          f5             PUSH PSW
003b                          79             MOV  A,C
003c                          fe 21          CPI  21
003e                          da d4 c0       JC   c0d4
0041                          2a fc 8f       LHLD (8ffc
0044                          7c             MOV  A,H
0045                          fe be          CPI  be
0047                          d2 b2 c0       JNC  c0b2
004a                          c6 03          ADI  3
004c                          32 fd 8f       STA  (8ffd)
004f                          eb             XCHG
0050                          79             MOV  A,C
0051                          32 e9 8f       STA  (8fe9)
0054                          d6 20          SUI  20
0056                          2a e7 8f       LHLD (8fe7
0059                          85             ADC  L
005a                          6f             MOV  L,A
005b                          29             DAD  HL
005c                          29             DAD  HL
005d                          29             DAD  HL
005e                          eb             XCHG
005f                          00             NOOP
0060                          7c             MOV  A,H
0061                          e6             ANI  3
0062                          03             INX  BC
0063                          4f             MOV  C,A
0064                          3e 05          MVI  A, 5
0066                          91             SUB  C
0067                          4f             MOV  C,A
0068                          7c             MOV  A,H
0069                          e6             ANI  fc
006a                          fc 0f 0f       CM   0f0f
006d                          c6 90          ADI  90
006f                          67             MOV  H,A
0070                          22 f8 8f       SHLD (8ff8)
0073                          06 08          MVI  B, 8
0075                          00             NOOP
0076                          1a             LDAX DE
0077                          6f             MOV  L,A
0078                          26 00          MVI  H, 0
007a                          79             MOV  A,C
007b                          29             DAD  HL
007c                          29             DAD  HL
007d                          3d             DCR  A
007e                          c2 7b c0       JNZ  c07b
0081                          e5             PUSH HL
0082                          13             INX  DE
0083                          05             DCR  B
0084                          c2 76 c0       JNZ  c076
0087                          06 08          MVI  B, 8
0089                          2a f8 8f       LHLD (8ff8
008c                          d1             POP  DE
008d                          7a             MOV  A,D
008e                          cd 63 c1       CALL c163
0091                          77             MOV  (HL),A
0092                          24             INR  H
0093                          7b             MOV  A,E
0094                          cd 63 c1       CALL c163
0097                          77             MOV  (HL),A
0098                          25             DCR  H
0099                          2d             DCR  L
009a                          05             DCR  B
009b                          c2 8c c0       JNZ  c08c
009e                          f1             POP  PSW
009f                          c1             POP  BC
00a0                          d1             POP  DE
00a1                          e1             POP  HL
00a2                          c9             RET
00a3                          4f             MOV  C,A
00a4                          3a fa 8f       LDA  (8ffa)
00a7                          b7             ORA  A
00a8                          c2 af c0       JNZ  c0af
00ab                          79             MOV  A,C
00ac                          2f             CMA
00ad                          a6             ANA  (HL)
00ae                          c9             RET
00af                          7e             MOV  A,(HL)
00b0                          b1             ORA  C
00b1                          c9             RET
00b2                          7d             MOV  A,L
00b3                          fe f5          CPI  f5
00b5                          d2 c4 c0       JNC  c0c4
00b8                          c6 0a          ADI  a
00ba                          6f             MOV  L,A
00bb                          32 fc 8f       STA  (8ffc)
00be                          26 00          MVI  H, 0
00c0                          7c             MOV  A,H
00c1                          c3 4a c0       JMP  c04a
00c4                          cd 2d c2       CALL c22d
00c7                          00             NOOP
00c8                          cd 10 c0       CALL c010
00cb                          21 08 00       LXI  HL, 0008
00ce                          22 fc 8f       SHLD (8ffc)
00d1                          c3 41 c0       JMP  c041
00d4                          2a fc 8f       LHLD (8ffc
00d7                          fe 20          CPI  20
00d9                          ca 07 c1       JZ   c107
00dc                          fe 0a          CPI  a
00de                          ca 13 c1       JZ   c113
00e1                          fe 0d          CPI  d
00e3                          ca 28 c1       JZ   c128
00e6                          fe 18          CPI  18
00e8                          ca 07 c1       JZ   c107
00eb                          fe 08          CPI  8
00ed                          ca 2d c1       JZ   c12d
00f0                          fe 19          CPI  19
00f2                          ca 39 c1       JZ   c139
00f5                          fe 1a          CPI  1a
00f7                          ca 45 c1       JZ   c145
00fa                          fe 0c          CPI  c
00fc                          ca 51 c1       JZ   c151
00ff                          fe 1f          CPI  1f
0101                          ca 57 c1       JZ   c157
0104                          c3 5d c1       JMP  c15d
0107                          7c             MOV  A,H
0108                          fe be          CPI  be
010a                          d2 13 c1       JNC  c113
010d                          c6 03          ADI  3
010f                          67             MOV  H,A
0110                          c3 5d c1       JMP  c15d
0113                          26 00          MVI  H, 0
0115                          7d             MOV  A,L
0116                          fe f5          CPI  f5
0118                          d2 21 c1       JNC  c121
011b                          c6 0a          ADI  a
011d                          6f             MOV  L,A
011e                          c3 5d c1       JMP  c15d
0121                          cd 2d c2       CALL c22d
0124                          00             NOOP
0125                          c3 57 c1       JMP  c157
0128                          26 00          MVI  H, 0
012a                          c3 5d c1       JMP  c15d
012d                          7c             MOV  A,H
012e                          fe 02          CPI  2
0130                          da 5d c1       JC   c15d
0133                          d6 03          SUI  3
0135                          67             MOV  H,A
0136                          c3 5d c1       JMP  c15d
0139                          7d             MOV  A,L
013a                          fe 11          CPI  11
013c                          da 5d c1       JC   c15d
013f                          d6 0a          SUI  a
0141                          6f             MOV  L,A
0142                          c3 5d c1       JMP  c15d
0145                          7d             MOV  A,L
0146                          fe f5          CPI  f5
0148                          d2 5d c1       JNC  c15d
014b                          c6 0a          ADI  a
014d                          6f             MOV  L,A
014e                          c3 5d c1       JMP  c15d
0151                          21 08 00       LXI  HL, 0008
0154                          c3 5d c1       JMP  c15d
0157                          cd 10 c0       CALL c010
015a                          c3 51 c1       JMP  c151
015d                          22 fc 8f       SHLD (8ffc)
0160                          c3 9e c0       JMP  c09e
0163                          4f             MOV  C,A
0164                          3a e9 8f       LDA  (8fe9)
0167                          fe 7f          CPI  7f
0169                          79             MOV  A,C
016a                          ca a3 c0       JZ   c0a3
016d                          ae             XRA  (HL)
016e                          c9             RET
016f                          00             NOOP
0170                          e5             PUSH HL
0171                          c5             PUSH BC
0172                          2a f1 8f       LHLD (8ff1
0175                          3e 0b          MVI  A, b
0177                          32 03 ff       STA  (ff03)
017a                          cd 8f c1       CALL c18f
017d                          3e 0a          MVI  A, a
017f                          32 03 ff       STA  (ff03)
0182                          cd 8f c1       CALL c18f
0185                          25             DCR  H
0186                          c2 75 c1       JNZ  c175
0189                          00             NOOP
018a                          00             NOOP
018b                          00             NOOP
018c                          c1             POP  BC
018d                          e1             POP  HL
018e                          c9             RET
018f                          45             MOV  B,L
0190                          05             DCR  B
0191                          c2 90 c1       JNZ  c190
0194                          c9             RET
0195                          f5             PUSH PSW
0196                          3e 40          MVI  A, 40
0198                          32 f1 8f       STA  (8ff1)
019b                          cd 70 c1       CALL c170
019e                          f1             POP  PSW
019f                          c9             RET
01a0                          e5             PUSH HL
01a1                          3e 40          MVI  A, 40
01a3                          32 f1 8f       STA  (8ff1)
01a6                          cd 70 c1       CALL c170
01a9                          e1             POP  HL
01aa                          c9             RET
01ab                          e5             PUSH HL
01ac                          3e 50          MVI  A, 50
01ae                          c3 a3 c1       JMP  c1a3
01b1                          e5             PUSH HL
01b2                          c5             PUSH BC
01b3                          06 ff          MVI  B, ff
01b5                          cd 83 c2       CALL c283
01b8                          3a f4 8f       LDA  (8ff4)
01bb                          b7             ORA  A
01bc                          ca e2 c1       JZ   c1e2
01bf                          cd 54 c2       CALL c254
01c2                          3a 01 ff       LDA  (ff01)
01c5                          e6             ANI  2
01c6                          02             STAX BC
01c7                          ca 4b c2       JZ   c24b
01ca                          cd 5a c2       CALL c25a
01cd                          3a 00 ff       LDA  (ff00)
01d0                          fe ff          CPI  ff
01d2                          c2 ff c1       JNZ  c1ff
01d5                          3a 02 ff       LDA  (ff02)
01d8                          f6 f0          ORI  f0
01da                          fe ff          CPI  ff
01dc                          c2 05 c2       JNZ  c205
01df                          c3 b5 c1       JMP  c1b5
01e2                          cd 54 c2       CALL c254
01e5                          3a 01 ff       LDA  (ff01)
01e8                          e6             ANI  2
01e9                          02             STAX BC
01ea                          c2 f2 c1       JNZ  c1f2
01ed                          06 ff          MVI  B, ff
01ef                          c3 ca c1       JMP  c1ca
01f2                          05             DCR  B
01f3                          c2 ca c1       JNZ  c1ca
01f6                          32 f4 8f       STA  (8ff4)
01f9                          cd a0 c1       CALL c1a0
01fc                          c3 b5 c1       JMP  c1b5
01ff                          6f             MOV  L,A
0200                          26 ff          MVI  H, ff
0202                          c3 08 c2       JMP  c208
0205                          67             MOV  H,A
0206                          2e ff          MVI  L, ff
0208                          0e fb          MVI  C, fb
020a                          0c             INR  C
020b                          29             DAD  HL
020c                          da 0a c2       JC   c20a
020f                          69             MOV  L,C
0210                          06 ff          MVI  B, ff
0212                          cd 54 c2       CALL c254
0215                          3a 01 ff       LDA  (ff01)
0218                          f6 03          ORI  3
021a                          fe ff          CPI  ff
021c                          c2 35 c2       JNZ  c235
021f                          05             DCR  B
0220                          c2 12 c2       JNZ  c212
0223                          c3 b5 c1       JMP  c1b5
0226                          3a 01 ff       LDA  (ff01)
0229                          2f             CMA
022a                          e6             ANI  fe
022b                          fe c9          CPI  c9
022d                          cd 26 c2       CALL c226
0230                          c4 60 c2       CNZ  c260
0233                          c9             RET
0234                          00             NOOP
0235                          0e fd          MVI  C, fd
0237                          0c             INR  C
0238                          0f             RRC
0239                          da 37 c2       JC   c237
023c                          79             MOV  A,C
023d                          07             RLC
023e                          07             RLC
023f                          07             RLC
0240                          07             RLC
0241                          c6 a0          ADI  a0
0243                          b5             ORA  L
0244                          6f             MOV  L,A
0245                          26 c4          MVI  H, c4
0247                          7e             MOV  A,(HL)
0248                          c1             POP  BC
0249                          e1             POP  HL
024a                          c9             RET
024b                          32 f4 8f       STA  (8ff4)
024e                          cd ab c1       CALL c1ab
0251                          c3 b5 c1       JMP  c1b5
0254                          3e 82          MVI  A, 82
0256                          32 03 ff       STA  (ff03)
0259                          c9             RET
025a                          3e 91          MVI  A, 91
025c                          32 03 ff       STA  (ff03)
025f                          c9             RET
0260                          c5             PUSH BC
0261                          3a ef 8f       LDA  (8fef)
0264                          fe 80          CPI  80
0266                          ca 46 c3       JZ   c346
0269                          0e ff          MVI  C, ff
026b                          cd 54 c2       CALL c254
026e                          3a 01 ff       LDA  (ff01)
0271                          f6 03          ORI  3
0273                          fe ff          CPI  ff
0275                          c2 69 c2       JNZ  c269
0278                          06 15          MVI  B, 15
027a                          cd 90 c1       CALL c190
027d                          0d             DCR  C
027e                          c2 6b c2       JNZ  c26b
0281                          c1             POP  BC
0282                          c9             RET
0283                          2a ed 8f       LHLD (8fed
0286                          e9             PCHL
0287                          e5             PUSH HL
0288                          21 eb 8f       LXI  HL, 8feb
028b                          35             DCR  (HL)
028c                          cc 91 c2       CZ   c291
028f                          e1             POP  HL
0290                          c9             RET
0291                          c5             PUSH BC
0292                          21 eb 8f       LXI  HL, 8feb
0295                          36 ff          MVI  (HL), ff
0297                          2b             DCX  HL
0298                          34             INR  (HL)
0299                          2a fc 8f       LHLD (8ffc
029c                          23             INX  HL
029d                          23             INX  HL
029e                          22 fc 8f       SHLD (8ffc)
02a1                          0e 5f          MVI  C, 5f
02a3                          cd bc c2       CALL c2bc
02a6                          2a fc 8f       LHLD (8ffc
02a9                          2b             DCX  HL
02aa                          2b             DCX  HL
02ab                          22 fc 8f       SHLD (8ffc)
02ae                          c1             POP  BC
02af                          c9             RET
02b0                          e5             PUSH HL
02b1                          f5             PUSH PSW
02b2                          3a ea 8f       LDA  (8fea)
02b5                          0f             RRC
02b6                          d4 91 c2       CNC  c291
02b9                          f1             POP  PSW
02ba                          e1             POP  HL
02bb                          c9             RET
02bc                          e5             PUSH HL
02bd                          d5             PUSH DE
02be                          c5             PUSH BC
02bf                          f5             PUSH PSW
02c0                          79             MOV  A,C
02c1                          2a fc 8f       LHLD (8ffc
02c4                          eb             XCHG
02c5                          c3 50 c0       JMP  c050
02c8                          c3 5e c3       JMP  c35e
02cb                          3e 00          MVI  A, 0
02cd                          32 ea 8f       STA  (8fea)
02d0                          cd b1 c1       CALL c1b1
02d3                          cd b0 c2       CALL c2b0
02d6                          fe 80          CPI  80
02d8                          ca 0c c3       JZ   c30c
02db                          cd 95 c1       CALL c195
02de                          fe 81          CPI  81
02e0                          d2 15 c3       JNC  c315
02e3                          32 f0 8f       STA  (8ff0)
02e6                          32 ef 8f       STA  (8fef)
02e9                          f5             PUSH PSW
02ea                          fe 21          CPI  21
02ec                          da fb c2       JC   c2fb
02ef                          3a f4 8f       LDA  (8ff4)
02f2                          b7             ORA  A
02f3                          ca 00 c3       JZ   c300
02f6                          fe 04          CPI  4
02f8                          ca 00 c3       JZ   c300
02fb                          f1             POP  PSW
02fc                          c9             RET
02fd                          00             NOOP
02fe                          00             NOOP
02ff                          00             NOOP
0300                          f1             POP  PSW
0301                          fe 40          CPI  40
0303                          da 09 c3       JC   c309
0306                          ee 20          XRI  {operand1.toString(16)}
0308                          c9             RET
0309                          ee 10          XRI  {operand1.toString(16)}
030b                          c9             RET
030c                          32 ef 8f       STA  (8fef)
030f                          3a f0 8f       LDA  (8ff0)
0312                          c3 e9 c2       JMP  c2e9
0315                          fe 81          CPI  81
0317                          c2 25 c3       JNZ  c325
031a                          3e 04          MVI  A, 4
031c                          32 f4 8f       STA  (8ff4)
031f                          cd ab c1       CALL c1ab
0322                          c3 c8 c2       JMP  c2c8
0325                          fe 8c          CPI  8c
0327                          c2 6c c3       JNZ  c36c
032a                          21 ff ff       LXI  HL, ffff
032d                          22 fa 8f       SHLD (8ffa)
0330                          c3 c8 c2       JMP  c2c8
0333                          2a e5 8f       LHLD (8fe5
0336                          e9             PCHL
0337                          c5             PUSH BC
0338                          d5             PUSH DE
0339                          e5             PUSH HL
033a                          21 eb 8f       LXI  HL, 8feb
033d                          36 01          MVI  (HL), 1
033f                          cd c8 c2       CALL c2c8
0342                          e1             POP  HL
0343                          d1             POP  DE
0344                          c1             POP  BC
0345                          c9             RET
0346                          0e 10          MVI  C, 10
0348                          06 ff          MVI  B, ff
034a                          cd 90 c1       CALL c190
034d                          0d             DCR  C
034e                          c2 48 c3       JNZ  c348
0351                          c3 81 c2       JMP  c281
0354                          c5             PUSH BC
0355                          06 15          MVI  B, 15
0357                          cd 90 c1       CALL c190
035a                          c1             POP  BC
035b                          c3 87 c2       JMP  c287
035e                          21 eb 8f       LXI  HL, 8feb
0361                          36 01          MVI  (HL), 1
0363                          cd 83 c2       CALL c283
0366                          cd 60 c2       CALL c260
0369                          c3 cb c2       JMP  c2cb
036c                          fe 8b          CPI  8b
036e                          c2 33 c3       JNZ  c333
0371                          21 00 00       LXI  HL, 0000
0374                          c3 2d c3       JMP  c32d
0377                          c5             PUSH BC
0378                          d5             PUSH DE
0379                          0e 00          MVI  C, 0
037b                          57             MOV  D,A
037c                          3a 01 ff       LDA  (ff01)
037f                          e6             ANI  1
0380                          01 5f 79       LXI  BC, 795f
0383                          e6             ANI  7f
0384                          7f             MOV  A,A
0385                          07             RLC
0386                          4f             MOV  C,A
0387                          3a 01 ff       LDA  (ff01)
038a                          fe 80          CPI  80
038c                          da 5a c4       JC   c45a
038f                          e6             ANI  1
0390                          01 bb ca       LXI  BC, cabb
0393                          87             ADC  A
0394                          c3 b1 4f       JMP  4fb1
0397                          cd c9 c3       CALL c3c9
039a                          3a 01 ff       LDA  (ff01)
039d                          e6             ANI  1
039e                          01 5f 7a       LXI  BC, 7a5f
03a1                          b7             ORA  A
03a2                          f2 be c3       JP   c3be
03a5                          79             MOV  A,C
03a6                          fe e6          CPI  e6
03a8                          c2 b2 c3       JNZ  c3b2
03ab                          af             XRA  A
03ac                          32 f8 8f       STA  (8ff8)
03af                          c3 bc c3       JMP  c3bc
03b2                          fe 19          CPI  19
03b4                          c2 82 c3       JNZ  c382
03b7                          3e ff          MVI  A, ff
03b9                          32 f3 8f       STA  (8ff3)
03bc                          16 09          MVI  D, 9
03be                          15             DCR  D
03bf                          c2 82 c3       JNZ  c382
03c2                          3a f3 8f       LDA  (8ff3)
03c5                          a9             XRA  C
03c6                          d1             POP  DE
03c7                          c1             POP  BC
03c8                          c9             RET
03c9                          3a ff 8f       LDA  (8fff)
03cc                          47             MOV  B,A
03cd                          c3 90 c1       JMP  c190
03d0                          c5             PUSH BC
03d1                          d5             PUSH DE
03d2                          f5             PUSH PSW
03d3                          57             MOV  D,A
03d4                          0e 08          MVI  C, 8
03d6                          7a             MOV  A,D
03d7                          07             RLC
03d8                          57             MOV  D,A
03d9                          e6             ANI  1
03da                          01 f6 0e       LXI  BC, 0ef6
03dd                          32 03 ff       STA  (ff03)
03e0                          5f             MOV  E,A
03e1                          cd 84 c4       CALL c484
03e4                          7b             MOV  A,E
03e5                          ee 01          XRI  {operand1.toString(16)}
03e7                          32 03 ff       STA  (ff03)
03ea                          cd 84 c4       CALL c484
03ed                          0d             DCR  C
03ee                          c2 d6 c3       JNZ  c3d6
03f1                          f1             POP  PSW
03f2                          d1             POP  DE
03f3                          c1             POP  BC
03f4                          c9             RET
03f5                          00             NOOP
03f6                          00             NOOP
03f7                          00             NOOP
03f8                          00             NOOP
03f9                          3e ff          MVI  A, ff
03fb                          cd 77 c3       CALL c377
03fe                          6f             MOV  L,A
03ff                          3e 08          MVI  A, 8
0401                          cd 77 c3       CALL c377
0404                          67             MOV  H,A
0405                          22 e3 8f       SHLD (8fe3)
0408                          3e 08          MVI  A, 8
040a                          cd 77 c3       CALL c377
040d                          5f             MOV  E,A
040e                          3e 08          MVI  A, 8
0410                          cd 77 c3       CALL c377
0413                          57             MOV  D,A
0414                          3e 08          MVI  A, 8
0416                          cd 77 c3       CALL c377
0419                          77             MOV  (HL),A
041a                          cd 27 c4       CALL c427
041d                          23             INX  HL
041e                          c2 14 c4       JNZ  c414
0421                          c9             RET
0422                          3e ff          MVI  A, ff
0424                          c3 16 c4       JMP  c416
0427                          7c             MOV  A,H
0428                          ba             CMP  D
0429                          c0             RNZ
042a                          7d             MOV  A,L
042b                          bb             CMP  E
042c                          c9             RET
042d                          7e             MOV  A,(HL)
042e                          02             STAX BC
042f                          23             INX  HL
0430                          03             INX  BC
0431                          cd 27 c4       CALL c427
0434                          c2 2d c4       JNZ  c42d
0437                          c9             RET
0438                          7e             MOV  A,(HL)
0439                          4f             MOV  C,A
043a                          fe 00          CPI  0
043c                          c8             RZ
043d                          cd 37 c0       CALL c037
0440                          23             INX  HL
0441                          c3 38 c4       JMP  c438
0444                          21 73 c4       LXI  HL, c473
0447                          11 90 c4       LXI  DE, c490
044a                          01 e3 8f       LXI  BC, 8fe3
044d                          cd 2d c4       CALL c42d
0450                          cd 38 c4       CALL c438
0453                          cd f9 c3       CALL c3f9
0456                          2a e3 8f       LHLD (8fe3
0459                          e9             PCHL
045a                          cd 37 c3       CALL c337
045d                          fe 0d          CPI  d
045f                          ca 00 c8       JZ   c800
0462                          fe 0a          CPI  a
0464                          ca 6f c4       JZ   c46f
0467                          32 ff 8f       STA  (8fff)
046a                          3e ff          MVI  A, ff
046c                          c3 79 c3       JMP  c379
046f                          2a e1 8f       LHLD (8fe1
0472                          e9             PCHL
0473                          00             NOOP
0474                          c0             RNZ
0475                          c8             RZ
0476                          c2 a0 18       JNZ  18a0
0479                          00             NOOP
047a                          00             NOOP
047b                          00             NOOP
047c                          00             NOOP
047d                          54             MOV  D,H
047e                          c3 20 20       JMP  2020
0481                          40             MOV  B,B
0482                          40             MOV  B,B
0483                          00             NOOP
0484                          3a fe 8f       LDA  (8ffe)
0487                          c3 cc c3       JMP  c3cc
048a                          00             NOOP
048b                          00             NOOP
048c                          00             NOOP
048d                          00             NOOP
048e                          28             NOOP
048f                          3c             INR  A
0490                          1f             RAR
0491                          20             NOOP
0492                          2a 20 70       LHLD (7020
0495                          72             MOV  (HL),D
0496                          6f             MOV  L,A
0497                          67             MOV  H,A
0498                          72             MOV  (HL),D
0499                          61             MOV  H,C
049a                          6d             MOV  L,L
049b                          6d             MOV  L,L
049c                          61             MOV  H,C
049d                          20             NOOP
049e                          3f             CMC
049f                          00             NOOP
04a0                          81             ADC  C
04a1                          0c             INR  C
04a2                          19             DAD  DE
04a3                          1a             LDAX DE
04a4                          20             NOOP
04a5                          09             DAD  BC
04a6                          03             INX  BC
04a7                          08             NOOP
04a8                          80             ADC  B
04a9                          18             NOOP
04aa                          0a             LDAX BC
04ab                          0d             DCR  C
04ac                          00             NOOP
04ad                          00             NOOP
04ae                          00             NOOP
04af                          00             NOOP
04b0                          51             MOV  D,C
04b1                          5e             MOV  E,(HL)
04b2                          53             MOV  D,E
04b3                          4d             MOV  C,L
04b4                          49             MOV  C,C
04b5                          54             MOV  D,H
04b6                          58             MOV  E,B
04b7                          42             MOV  B,D
04b8                          40             MOV  B,B
04b9                          2c             INR  L
04ba                          2f             CMA
04bb                          5f             MOV  E,A
04bc                          00             NOOP
04bd                          00             NOOP
04be                          00             NOOP
04bf                          00             NOOP
04c0                          46             MOV  B,(HL)
04c1                          59             MOV  E,C
04c2                          57             MOV  D,A
04c3                          41             MOV  B,C
04c4                          50             MOV  D,B
04c5                          52             MOV  D,D
04c6                          4f             MOV  C,A
04c7                          4c             MOV  C,H
04c8                          44             MOV  B,H
04c9                          56             MOV  D,(HL)
04ca                          5c             MOV  E,H
04cb                          2e 00          MVI  L, 0
04cd                          00             NOOP
04ce                          00             NOOP
04cf                          00             NOOP
04d0                          4a             MOV  C,D
04d1                          43             MOV  B,E
04d2                          55             MOV  D,L
04d3                          4b             MOV  C,E
04d4                          45             MOV  B,L
04d5                          4e             MOV  C,(HL)
04d6                          47             MOV  B,A
04d7                          5b             MOV  E,E
04d8                          5d             MOV  E,L
04d9                          5a             MOV  E,D
04da                          48             MOV  C,B
04db                          3a 00 00       LDA  (0000)
04de                          00             NOOP
04df                          00             NOOP
04e0                          3b             DCX  SP
04e1                          31 32 33       LXI  SP, 3332
04e4                          34             INR  (HL)
04e5                          35             DCR  (HL)
04e6                          36 37          MVI  (HL), 37
04e8                          38             NOOP
04e9                          39             DAD  SP
04ea                          30             NOOP
04eb                          3d             DCR  A
04ec                          00             NOOP
04ed                          00             NOOP
04ee                          00             NOOP
04ef                          00             NOOP
04f0                          82             ADC  D
04f1                          83             ADC  E
04f2                          84             ADC  H
04f3                          85             ADC  L
04f4                          86             ADC  (HL)
04f5                          87             ADC  A
04f6                          88             ADC  B
04f7                          89             ADC  C
04f8                          8a             ADC  D
04f9                          8b             ADC  E
04fa                          8c             ADC  H
04fb                          1f             RAR
04fc                          00             NOOP
04fd                          00             NOOP
04fe                          00             NOOP
04ff                          00             NOOP
0500                          00             NOOP
0501                          00             NOOP
0502                          00             NOOP
0503                          00             NOOP
0504                          00             NOOP
0505                          00             NOOP
0506                          00             NOOP
0507                          00             NOOP
0508                          04             INR  B
0509                          04             INR  B
050a                          04             INR  B
050b                          04             INR  B
050c                          04             INR  B
050d                          00             NOOP
050e                          04             INR  B
050f                          00             NOOP
0510                          0a             LDAX BC
0511                          0a             LDAX BC
0512                          0a             LDAX BC
0513                          00             NOOP
0514                          00             NOOP
0515                          00             NOOP
0516                          00             NOOP
0517                          00             NOOP
0518                          0a             LDAX BC
0519                          0a             LDAX BC
051a                          1f             RAR
051b                          0a             LDAX BC
051c                          1f             RAR
051d                          0a             LDAX BC
051e                          0a             LDAX BC
051f                          00             NOOP
0520                          04             INR  B
0521                          0f             RRC
0522                          14             INR  D
0523                          0e 05          MVI  C, 5
0525                          1e 04          MVI  E, 4
0527                          00             NOOP
0528                          18             NOOP
0529                          19             DAD  DE
052a                          02             STAX BC
052b                          04             INR  B
052c                          08             NOOP
052d                          13             INX  DE
052e                          03             INX  BC
052f                          00             NOOP
0530                          04             INR  B
0531                          0a             LDAX BC
0532                          0a             LDAX BC
0533                          0c             INR  C
0534                          15             DCR  D
0535                          12             STAX DE
0536                          0d             DCR  C
0537                          00             NOOP
0538                          06 06          MVI  B, 6
053a                          02             STAX BC
053b                          04             INR  B
053c                          00             NOOP
053d                          00             NOOP
053e                          00             NOOP
053f                          00             NOOP
0540                          02             STAX BC
0541                          04             INR  B
0542                          08             NOOP
0543                          08             NOOP
0544                          08             NOOP
0545                          04             INR  B
0546                          02             STAX BC
0547                          00             NOOP
0548                          08             NOOP
0549                          04             INR  B
054a                          02             STAX BC
054b                          02             STAX BC
054c                          02             STAX BC
054d                          04             INR  B
054e                          08             NOOP
054f                          00             NOOP
0550                          00             NOOP
0551                          04             INR  B
0552                          15             DCR  D
0553                          0e 15          MVI  C, 15
0555                          04             INR  B
0556                          00             NOOP
0557                          00             NOOP
0558                          00             NOOP
0559                          04             INR  B
055a                          04             INR  B
055b                          1f             RAR
055c                          04             INR  B
055d                          04             INR  B
055e                          00             NOOP
055f                          00             NOOP
0560                          00             NOOP
0561                          00             NOOP
0562                          00             NOOP
0563                          0c             INR  C
0564                          0c             INR  C
0565                          04             INR  B
0566                          08             NOOP
0567                          00             NOOP
0568                          00             NOOP
0569                          00             NOOP
056a                          00             NOOP
056b                          1f             RAR
056c                          00             NOOP
056d                          00             NOOP
056e                          00             NOOP
056f                          00             NOOP
0570                          00             NOOP
0571                          00             NOOP
0572                          00             NOOP
0573                          00             NOOP
0574                          00             NOOP
0575                          0c             INR  C
0576                          0c             INR  C
0577                          00             NOOP
0578                          00             NOOP
0579                          01 02 04       LXI  BC, 0402
057c                          08             NOOP
057d                          10             NOOP
057e                          00             NOOP
057f                          00             NOOP
0580                          0e 11          MVI  C, 11
0582                          13             INX  DE
0583                          15             DCR  D
0584                          19             DAD  DE
0585                          11 0e 00       LXI  DE, 000e
0588                          04             INR  B
0589                          0c             INR  C
058a                          04             INR  B
058b                          04             INR  B
058c                          04             INR  B
058d                          04             INR  B
058e                          0e 00          MVI  C, 0
0590                          0e 11          MVI  C, 11
0592                          01 06 08       LXI  BC, 0806
0595                          10             NOOP
0596                          1f             RAR
0597                          00             NOOP
0598                          1f             RAR
0599                          01 02 06       LXI  BC, 0602
059c                          01 11 0e       LXI  BC, 0e11
059f                          00             NOOP
05a0                          02             STAX BC
05a1                          06 0a          MVI  B, a
05a3                          12             STAX DE
05a4                          1f             RAR
05a5                          02             STAX BC
05a6                          02             STAX BC
05a7                          00             NOOP
05a8                          1f             RAR
05a9                          10             NOOP
05aa                          1e 01          MVI  E, 1
05ac                          01 11 0e       LXI  BC, 0e11
05af                          00             NOOP
05b0                          07             RLC
05b1                          08             NOOP
05b2                          10             NOOP
05b3                          1e 11          MVI  E, 11
05b5                          11 0e 00       LXI  DE, 000e
05b8                          1f             RAR
05b9                          01 02 04       LXI  BC, 0402
05bc                          08             NOOP
05bd                          08             NOOP
05be                          08             NOOP
05bf                          00             NOOP
05c0                          0e 11          MVI  C, 11
05c2                          11 0e 11       LXI  DE, 110e
05c5                          11 0e 00       LXI  DE, 000e
05c8                          0e 11          MVI  C, 11
05ca                          11 0f 01       LXI  DE, 010f
05cd                          02             STAX BC
05ce                          1c             INR  E
05cf                          00             NOOP
05d0                          00             NOOP
05d1                          0c             INR  C
05d2                          0c             INR  C
05d3                          00             NOOP
05d4                          00             NOOP
05d5                          0c             INR  C
05d6                          0c             INR  C
05d7                          00             NOOP
05d8                          0c             INR  C
05d9                          0c             INR  C
05da                          00             NOOP
05db                          0c             INR  C
05dc                          0c             INR  C
05dd                          04             INR  B
05de                          08             NOOP
05df                          00             NOOP
05e0                          02             STAX BC
05e1                          04             INR  B
05e2                          08             NOOP
05e3                          10             NOOP
05e4                          08             NOOP
05e5                          04             INR  B
05e6                          02             STAX BC
05e7                          00             NOOP
05e8                          00             NOOP
05e9                          00             NOOP
05ea                          1f             RAR
05eb                          00             NOOP
05ec                          1f             RAR
05ed                          00             NOOP
05ee                          00             NOOP
05ef                          00             NOOP
05f0                          08             NOOP
05f1                          04             INR  B
05f2                          02             STAX BC
05f3                          01 02 04       LXI  BC, 0402
05f6                          08             NOOP
05f7                          00             NOOP
05f8                          0e 11          MVI  C, 11
05fa                          01 02 04       LXI  BC, 0402
05fd                          00             NOOP
05fe                          04             INR  B
05ff                          00             NOOP
0600                          0e 11          MVI  C, 11
0602                          13             INX  DE
0603                          15             DCR  D
0604                          17             RAL
0605                          10             NOOP
0606                          0e 00          MVI  C, 0
0608                          04             INR  B
0609                          0a             LDAX BC
060a                          11 11 1f       LXI  DE, 1f11
060d                          11 11 00       LXI  DE, 0011
0610                          1e 11          MVI  E, 11
0612                          11 1e 11       LXI  DE, 111e
0615                          11 1e 00       LXI  DE, 001e
0618                          0e 11          MVI  C, 11
061a                          10             NOOP
061b                          10             NOOP
061c                          10             NOOP
061d                          11 0e 00       LXI  DE, 000e
0620                          1e 09          MVI  E, 9
0622                          09             DAD  BC
0623                          09             DAD  BC
0624                          09             DAD  BC
0625                          09             DAD  BC
0626                          1e 00          MVI  E, 0
0628                          1f             RAR
0629                          10             NOOP
062a                          10             NOOP
062b                          1e 10          MVI  E, 10
062d                          10             NOOP
062e                          1f             RAR
062f                          00             NOOP
0630                          1f             RAR
0631                          10             NOOP
0632                          10             NOOP
0633                          1e 10          MVI  E, 10
0635                          10             NOOP
0636                          10             NOOP
0637                          00             NOOP
0638                          0e 11          MVI  C, 11
063a                          10             NOOP
063b                          10             NOOP
063c                          13             INX  DE
063d                          11 0f 00       LXI  DE, 000f
0640                          11 11 11       LXI  DE, 1111
0643                          1f             RAR
0644                          11 11 11       LXI  DE, 1111
0647                          00             NOOP
0648                          0e 04          MVI  C, 4
064a                          04             INR  B
064b                          04             INR  B
064c                          04             INR  B
064d                          04             INR  B
064e                          0e 00          MVI  C, 0
0650                          01 01 01       LXI  BC, 0101
0653                          01 11 11       LXI  BC, 1111
0656                          0e 00          MVI  C, 0
0658                          11 12 14       LXI  DE, 1412
065b                          18             NOOP
065c                          14             INR  D
065d                          12             STAX DE
065e                          11 00 10       LXI  DE, 1000
0661                          10             NOOP
0662                          10             NOOP
0663                          10             NOOP
0664                          10             NOOP
0665                          11 1f 00       LXI  DE, 001f
0668                          11 1b 15       LXI  DE, 151b
066b                          15             DCR  D
066c                          11 11 11       LXI  DE, 1111
066f                          00             NOOP
0670                          11 11 19       LXI  DE, 1911
0673                          15             DCR  D
0674                          13             INX  DE
0675                          11 11 00       LXI  DE, 0011
0678                          0e 11          MVI  C, 11
067a                          11 11 11       LXI  DE, 1111
067d                          11 0e 00       LXI  DE, 000e
0680                          1e 11          MVI  E, 11
0682                          11 1e 10       LXI  DE, 101e
0685                          10             NOOP
0686                          10             NOOP
0687                          00             NOOP
0688                          0e 11          MVI  C, 11
068a                          11 11 15       LXI  DE, 1511
068d                          12             STAX DE
068e                          0d             DCR  C
068f                          00             NOOP
0690                          1e 11          MVI  E, 11
0692                          11 1e 14       LXI  DE, 141e
0695                          12             STAX DE
0696                          11 00 0e       LXI  DE, 0e00
0699                          11 10 0e       LXI  DE, 0e10
069c                          01 11 0e       LXI  BC, 0e11
069f                          00             NOOP
06a0                          1f             RAR
06a1                          04             INR  B
06a2                          04             INR  B
06a3                          04             INR  B
06a4                          04             INR  B
06a5                          04             INR  B
06a6                          04             INR  B
06a7                          00             NOOP
06a8                          11 11 11       LXI  DE, 1111
06ab                          11 11 11       LXI  DE, 1111
06ae                          0e 00          MVI  C, 0
06b0                          11 11 11       LXI  DE, 1111
06b3                          0a             LDAX BC
06b4                          0a             LDAX BC
06b5                          04             INR  B
06b6                          04             INR  B
06b7                          00             NOOP
06b8                          11 11 11       LXI  DE, 1111
06bb                          15             DCR  D
06bc                          15             DCR  D
06bd                          15             DCR  D
06be                          0a             LDAX BC
06bf                          00             NOOP
06c0                          11 11 0a       LXI  DE, 0a11
06c3                          04             INR  B
06c4                          0a             LDAX BC
06c5                          11 11 00       LXI  DE, 0011
06c8                          11 11 0a       LXI  DE, 0a11
06cb                          04             INR  B
06cc                          04             INR  B
06cd                          04             INR  B
06ce                          04             INR  B
06cf                          00             NOOP
06d0                          1f             RAR
06d1                          01 02 0e       LXI  BC, 0e02
06d4                          08             NOOP
06d5                          10             NOOP
06d6                          1f             RAR
06d7                          00             NOOP
06d8                          0e 08          MVI  C, 8
06da                          08             NOOP
06db                          08             NOOP
06dc                          08             NOOP
06dd                          08             NOOP
06de                          0e 00          MVI  C, 0
06e0                          00             NOOP
06e1                          10             NOOP
06e2                          08             NOOP
06e3                          04             INR  B
06e4                          02             STAX BC
06e5                          01 00 00       LXI  BC, 0000
06e8                          0e 02          MVI  C, 2
06ea                          02             STAX BC
06eb                          02             STAX BC
06ec                          02             STAX BC
06ed                          02             STAX BC
06ee                          0e 00          MVI  C, 0
06f0                          0e 11          MVI  C, 11
06f2                          00             NOOP
06f3                          00             NOOP
06f4                          00             NOOP
06f5                          00             NOOP
06f6                          00             NOOP
06f7                          00             NOOP
06f8                          00             NOOP
06f9                          00             NOOP
06fa                          00             NOOP
06fb                          00             NOOP
06fc                          00             NOOP
06fd                          00             NOOP
06fe                          00             NOOP
06ff                          1f             RAR
0700                          12             STAX DE
0701                          15             DCR  D
0702                          15             DCR  D
0703                          1d             DCR  E
0704                          15             DCR  D
0705                          15             DCR  D
0706                          12             STAX DE
0707                          00             NOOP
0708                          04             INR  B
0709                          0a             LDAX BC
070a                          11 11 1f       LXI  DE, 1f11
070d                          11 11 00       LXI  DE, 0011
0710                          1f             RAR
0711                          10             NOOP
0712                          10             NOOP
0713                          1e 11          MVI  E, 11
0715                          11 1e 00       LXI  DE, 001e
0718                          12             STAX DE
0719                          12             STAX DE
071a                          12             STAX DE
071b                          12             STAX DE
071c                          12             STAX DE
071d                          1f             RAR
071e                          01 00 06       LXI  BC, 0600
0721                          0a             LDAX BC
0722                          0a             LDAX BC
0723                          0a             LDAX BC
0724                          0a             LDAX BC
0725                          1f             RAR
0726                          11 00 1f       LXI  DE, 1f00
0729                          10             NOOP
072a                          10             NOOP
072b                          1e 10          MVI  E, 10
072d                          10             NOOP
072e                          1f             RAR
072f                          00             NOOP
0730                          04             INR  B
0731                          1f             RAR
0732                          15             DCR  D
0733                          15             DCR  D
0734                          1f             RAR
0735                          04             INR  B
0736                          04             INR  B
0737                          00             NOOP
0738                          1f             RAR
0739                          11 10 10       LXI  DE, 1010
073c                          10             NOOP
073d                          10             NOOP
073e                          10             NOOP
073f                          00             NOOP
0740                          11 11 0a       LXI  DE, 0a11
0743                          04             INR  B
0744                          0a             LDAX BC
0745                          11 11 00       LXI  DE, 0011
0748                          11 11 13       LXI  DE, 1311
074b                          15             DCR  D
074c                          19             DAD  DE
074d                          11 11 00       LXI  DE, 0011
0750                          15             DCR  D
0751                          11 13 15       LXI  DE, 1513
0754                          19             DAD  DE
0755                          11 11 00       LXI  DE, 0011
0758                          11 12 14       LXI  DE, 1412
075b                          18             NOOP
075c                          14             INR  D
075d                          12             STAX DE
075e                          11 00 07       LXI  DE, 0700
0761                          09             DAD  BC
0762                          09             DAD  BC
0763                          09             DAD  BC
0764                          09             DAD  BC
0765                          09             DAD  BC
0766                          19             DAD  DE
0767                          00             NOOP
0768                          11 1b 15       LXI  DE, 151b
076b                          15             DCR  D
076c                          11 11 11       LXI  DE, 1111
076f                          00             NOOP
0770                          11 11 11       LXI  DE, 1111
0773                          1f             RAR
0774                          11 11 11       LXI  DE, 1111
0777                          00             NOOP
0778                          0e 11          MVI  C, 11
077a                          11 11 11       LXI  DE, 1111
077d                          11 0e 00       LXI  DE, 000e
0780                          1f             RAR
0781                          11 11 11       LXI  DE, 1111
0784                          11 11 11       LXI  DE, 1111
0787                          00             NOOP
0788                          0f             RRC
0789                          11 11 0f       LXI  DE, 0f11
078c                          05             DCR  B
078d                          09             DAD  BC
078e                          11 00 1e       LXI  DE, 1e00
0791                          11 11 1e       LXI  DE, 1e11
0794                          10             NOOP
0795                          10             NOOP
0796                          10             NOOP
0797                          00             NOOP
0798                          0e 11          MVI  C, 11
079a                          10             NOOP
079b                          10             NOOP
079c                          10             NOOP
079d                          11 0e 00       LXI  DE, 000e
07a0                          1f             RAR
07a1                          04             INR  B
07a2                          04             INR  B
07a3                          04             INR  B
07a4                          04             INR  B
07a5                          04             INR  B
07a6                          04             INR  B
07a7                          00             NOOP
07a8                          11 11 11       LXI  DE, 1111
07ab                          0a             LDAX BC
07ac                          04             INR  B
07ad                          08             NOOP
07ae                          10             NOOP
07af                          00             NOOP
07b0                          11 15 15       LXI  DE, 1515
07b3                          0e 15          MVI  C, 15
07b5                          15             DCR  D
07b6                          11 00 1e       LXI  DE, 1e00
07b9                          11 11 1e       LXI  DE, 1e11
07bc                          11 11 1e       LXI  DE, 1e11
07bf                          00             NOOP
07c0                          10             NOOP
07c1                          10             NOOP
07c2                          10             NOOP
07c3                          1e 11          MVI  E, 11
07c5                          11 1e 00       LXI  DE, 001e
07c8                          11 11 11       LXI  DE, 1111
07cb                          19             DAD  DE
07cc                          15             DCR  D
07cd                          15             DCR  D
07ce                          19             DAD  DE
07cf                          00             NOOP
07d0                          0e 11          MVI  C, 11
07d2                          01 06 01       LXI  BC, 0106
07d5                          11 0e 00       LXI  DE, 000e
07d8                          11 15 15       LXI  DE, 1515
07db                          15             DCR  D
07dc                          15             DCR  D
07dd                          15             DCR  D
07de                          1f             RAR
07df                          00             NOOP
07e0                          0e 11          MVI  C, 11
07e2                          01 07 01       LXI  BC, 0107
07e5                          11 0e 00       LXI  DE, 000e
07e8                          15             DCR  D
07e9                          15             DCR  D
07ea                          15             DCR  D
07eb                          15             DCR  D
07ec                          15             DCR  D
07ed                          1f             RAR
07ee                          01 00 11       LXI  BC, 1100
07f1                          11 11 1f       LXI  DE, 1f11
07f4                          01 01 01       LXI  BC, 0101
07f7                          00             NOOP
07f8                          3f             CMC
07f9                          3f             CMC
07fa                          3f             CMC
07fb                          3f             CMC
07fc                          3f             CMC
07fd                          3f             CMC
07fe                          3f             CMC
07ff                          3f             CMC
0800                          21 30 c8       LXI  HL, c830
0803                          11 df ca       LXI  DE, cadf
0806                          01 00 8d       LXI  BC, 8d00
0809                          7e             MOV  A,(HL)
080a                          02             STAX BC
080b                          23             INX  HL
080c                          03             INX  BC
080d                          cd 27 c4       CALL c427
0810                          c2 09 c8       JNZ  c809
0813                          21 e0 ca       LXI  HL, cae0
0816                          11 00 e8       LXI  DE, e800
0819                          01 00 00       LXI  BC, 0000
081c                          7e             MOV  A,(HL)
081d                          02             STAX BC
081e                          23             INX  HL
081f                          03             INX  BC
0820                          cd 27 c4       CALL c427
0823                          c2 1c c8       JNZ  c81c
0826                          c3 00 8d       JMP  8d00
0829                          00             NOOP
082a                          00             NOOP
082b                          00             NOOP
082c                          00             NOOP
082d                          00             NOOP
082e                          08             NOOP
082f                          00             NOOP
0830                          21 00 8d       LXI  HL, 8d00
0833                          22 e1 8f       SHLD (8fe1)
0836                          c3 9a 8d       JMP  8d9a
0839                          00             NOOP
083a                          00             NOOP
083b                          00             NOOP
083c                          00             NOOP
083d                          00             NOOP
083e                          08             NOOP
083f                          00             NOOP
0840                          d5             PUSH DE
0841                          cd 1e 8d       CALL 8d1e
0844                          4a             MOV  C,D
0845                          cd 37 c0       CALL c037
0848                          4b             MOV  C,E
0849                          cd 37 c0       CALL c037
084c                          d1             POP  DE
084d                          c9             RET
084e                          5f             MOV  E,A
084f                          0f             RRC
0850                          0f             RRC
0851                          0f             RRC
0852                          0f             RRC
0853                          cd 2d 8d       CALL 8d2d
0856                          57             MOV  D,A
0857                          7b             MOV  A,E
0858                          cd 2d 8d       CALL 8d2d
085b                          5f             MOV  E,A
085c                          c9             RET
085d                          e6             ANI  f
085e                          0f             RRC
085f                          fe 0a          CPI  a
0861                          da 36 8d       JC   8d36
0864                          c6 07          ADI  7
0866                          c6 30          ADI  30
0868                          c9             RET
0869                          7c             MOV  A,H
086a                          cd 10 8d       CALL 8d10
086d                          7d             MOV  A,L
086e                          cd 10 8d       CALL 8d10
0871                          0e 20          MVI  C, 20
0873                          cd 37 c0       CALL c037
0876                          06 10          MVI  B, 10
0878                          7e             MOV  A,(HL)
0879                          cd 10 8d       CALL 8d10
087c                          0e 20          MVI  C, 20
087e                          cd 37 c0       CALL c037
0881                          cd 27 c4       CALL c427
0884                          c8             RZ
0885                          05             DCR  B
0886                          23             INX  HL
0887                          c2 48 8d       JNZ  8d48
088a                          0e 0a          MVI  C, a
088c                          cd 37 c0       CALL c037
088f                          c3 39 8d       JMP  8d39
0892                          cd 37 c3       CALL c337
0895                          fe 20          CPI  20
0897                          da ff 8d       JC   8dff
089a                          fe 3a          CPI  3a
089c                          da 82 8d       JC   8d82
089f                          e6             ANI  5f
08a0                          5f             MOV  E,A
08a1                          fe 41          CPI  41
08a3                          da f6 8d       JC   8df6
08a6                          fe 47          CPI  47
08a8                          d2 f6 8d       JNC  8df6
08ab                          4f             MOV  C,A
08ac                          cd 37 c0       CALL c037
08af                          d6 37          SUI  37
08b1                          c9             RET
08b2                          f6 10          ORI  10
08b4                          4f             MOV  C,A
08b5                          cd 37 c0       CALL c037
08b8                          d6 30          SUI  30
08ba                          c9             RET
08bb                          c5             PUSH BC
08bc                          cd 62 8d       CALL 8d62
08bf                          07             RLC
08c0                          07             RLC
08c1                          07             RLC
08c2                          07             RLC
08c3                          47             MOV  B,A
08c4                          cd 62 8d       CALL 8d62
08c7                          b0             ORA  B
08c8                          c1             POP  BC
08c9                          c9             RET
08ca                          c3 a0 8f       JMP  8fa0
08cd                          21 df 8d       LXI  HL, 8ddf
08d0                          cd 38 c4       CALL c438
08d3                          0e 00          MVI  C, 0
08d5                          21 d0 8f       LXI  HL, 8fd0
08d8                          11 da 8f       LXI  DE, 8fda
08db                          cd d6 8d       CALL 8dd6
08de                          06 04          MVI  B, 4
08e0                          21 d0 8f       LXI  HL, 8fd0
08e3                          cd 37 c3       CALL c337
08e6                          77             MOV  (HL),A
08e7                          4f             MOV  C,A
08e8                          cd 37 c0       CALL c037
08eb                          23             INX  HL
08ec                          cd d0 8d       CALL 8dd0
08ef                          cd 8b 8d       CALL 8d8b
08f2                          77             MOV  (HL),A
08f3                          23             INX  HL
08f4                          cd 8b 8d       CALL 8d8b
08f7                          77             MOV  (HL),A
08f8                          23             INX  HL
08f9                          05             DCR  B
08fa                          c2 bc 8d       JNZ  8dbc
08fd                          c3 f6 8d       JMP  8df6
0900                          0e 20          MVI  C, 20
0902                          cd 37 c0       CALL c037
0905                          c9             RET
0906                          71             MOV  (HL),C
0907                          23             INX  HL
0908                          cd 27 c4       CALL c427
090b                          c2 d6 8d       JNZ  8dd6
090e                          c9             RET
090f                          0a             LDAX BC
0910                          2a 20 6d       LHLD (6d20
0913                          6f             MOV  L,A
0914                          6e             MOV  L,(HL)
0915                          69             MOV  L,C
0916                          74             MOV  (HL),H
0917                          6f             MOV  L,A
0918                          72             MOV  (HL),D
0919                          20             NOOP
091a                          3f             CMC
091b                          20             NOOP
091c                          00             NOOP
091d                          20             NOOP
091e                          6f             MOV  L,A
091f                          7b             MOV  A,E
0920                          69             MOV  L,C
0921                          62             MOV  H,D
0922                          6b             MOV  L,E
0923                          61             MOV  H,C
0924                          20             NOOP
0925                          00             NOOP
0926                          21 ed 8d       LXI  HL, 8ded
0929                          cd 38 c4       CALL c438
092c                          c3 9a 8d       JMP  8d9a
092f                          31 ff 3f       LXI  SP, 3fff
0932                          3a d0 8f       LDA  (8fd0)
0935                          21 70 8f       LXI  HL, 8f70
0938                          4f             MOV  C,A
0939                          7e             MOV  A,(HL)
093a                          a6             ANA  (HL)
093b                          ca f6 8d       JZ   8df6
093e                          b9             CMP  C
093f                          23             INX  HL
0940                          ca 18 8e       JZ   8e18
0943                          23             INX  HL
0944                          23             INX  HL
0945                          c3 09 8e       JMP  8e09
0948                          4e             MOV  C,(HL)
0949                          23             INX  HL
094a                          46             MOV  B,(HL)
094b                          21 d1 8f       LXI  HL, 8fd1
094e                          3e 03          MVI  A, 3
0950                          c5             PUSH BC
0951                          46             MOV  B,(HL)
0952                          23             INX  HL
0953                          4e             MOV  C,(HL)
0954                          23             INX  HL
0955                          3d             DCR  A
0956                          c2 20 8e       JNZ  8e20
0959                          d1             POP  DE
095a                          e1             POP  HL
095b                          c9             RET
095c                          00             NOOP
095d                          0e 1f          MVI  C, 1f
095f                          cd 37 c0       CALL c037
0962                          cd 39 8d       CALL 8d39
0965                          c3 9a 8d       JMP  8d9a
0968                          cd d0 8d       CALL 8dd0
096b                          cd 8b 8d       CALL 8d8b
096e                          77             MOV  (HL),A
096f                          23             INX  HL
0970                          c3 38 8e       JMP  8e38
0973                          70             MOV  (HL),B
0974                          cd 27 c4       CALL c427
0977                          ca 9a 8d       JZ   8d9a
097a                          23             INX  HL
097b                          c3 43 8e       JMP  8e43
097e                          7e             MOV  A,(HL)
097f                          b8             CMP  B
0980                          cc 5d 8e       CZ   8e5d
0983                          cd 27 c4       CALL c427
0986                          ca 9a 8d       JZ   8d9a
0989                          23             INX  HL
098a                          c3 4e 8e       JMP  8e4e
098d                          c5             PUSH BC
098e                          cd 7c 8e       CALL 8e7c
0991                          cd 82 8e       CALL 8e82
0994                          06 03          MVI  B, 3
0996                          7e             MOV  A,(HL)
0997                          cd 10 8d       CALL 8d10
099a                          cd d0 8d       CALL 8dd0
099d                          23             INX  HL
099e                          05             DCR  B
099f                          c2 66 8e       JNZ  8e66
09a2                          2b             DCX  HL
09a3                          2b             DCX  HL
09a4                          2b             DCX  HL
09a5                          c1             POP  BC
09a6                          c9             RET
09a7                          00             NOOP
09a8                          00             NOOP
09a9                          00             NOOP
09aa                          00             NOOP
09ab                          00             NOOP
09ac                          0e 0a          MVI  C, a
09ae                          cd 37 c0       CALL c037
09b1                          c9             RET
09b2                          7c             MOV  A,H
09b3                          cd 10 8d       CALL 8d10
09b6                          7d             MOV  A,L
09b7                          cd 10 8d       CALL 8d10
09ba                          cd d0 8d       CALL 8dd0
09bd                          c9             RET
09be                          e5             PUSH HL
09bf                          21 9a 8d       LXI  HL, 8d9a
09c2                          e3             XTHL
09c3                          e9             PCHL
09c4                          0a             LDAX BC
09c5                          be             CMP  (HL)
09c6                          c4 a4 8e       CNZ  8ea4
09c9                          cd 27 c4       CALL c427
09cc                          ca 9a 8d       JZ   8d9a
09cf                          23             INX  HL
09d0                          03             INX  BC
09d1                          c3 94 8e       JMP  8e94
09d4                          c5             PUSH BC
09d5                          cd 7c 8e       CALL 8e7c
09d8                          cd 82 8e       CALL 8e82
09db                          c1             POP  BC
09dc                          c9             RET
09dd                          7c             MOV  A,H
09de                          b8             CMP  B
09df                          da d7 8e       JC   8ed7
09e2                          7d             MOV  A,L
09e3                          b9             CMP  C
09e4                          da d7 8e       JC   8ed7
09e7                          7e             MOV  A,(HL)
09e8                          02             STAX BC
09e9                          cd 27 c4       CALL c427
09ec                          c8             RZ
09ed                          23             INX  HL
09ee                          03             INX  BC
09ef                          c3 b7 8e       JMP  8eb7
09f2                          e5             PUSH HL
09f3                          c5             PUSH BC
09f4                          b7             ORA  A
09f5                          7b             MOV  A,E
09f6                          9d             SBB  L
09f7                          4f             MOV  C,A
09f8                          7a             MOV  A,D
09f9                          9c             SBB  H
09fa                          da d4 8e       JC   8ed4
09fd                          47             MOV  B,A
09fe                          e1             POP  HL
09ff                          09             DAD  BC
0a00                          e5             PUSH HL
0a01                          c1             POP  BC
0a02                          e1             POP  HL
0a03                          c9             RET
0a04                          c1             POP  BC
0a05                          e1             POP  HL
0a06                          c9             RET
0a07                          cd c2 8e       CALL 8ec2
0a0a                          1a             LDAX DE
0a0b                          02             STAX BC
0a0c                          cd 27 c4       CALL c427
0a0f                          c8             RZ
0a10                          1b             DCX  DE
0a11                          0b             DCX  BC
0a12                          c3 da 8e       JMP  8eda
0a15                          cd ad 8e       CALL 8ead
0a18                          c3 9a 8d       JMP  8d9a
0a1b                          0e ff          MVI  C, ff
0a1d                          3e 00          MVI  A, 0
0a1f                          cd d0 c3       CALL c3d0
0a22                          0d             DCR  C
0a23                          c2 ed 8e       JNZ  8eed
0a26                          3e e6          MVI  A, e6
0a28                          cd d0 c3       CALL c3d0
0a2b                          7d             MOV  A,L
0a2c                          c3 90 8f       JMP  8f90
0a2f                          7c             MOV  A,H
0a30                          cd 40 c3       CALL c340
0a33                          7b             MOV  A,E
0a34                          cd d0 c3       CALL c3d0
0a37                          7a             MOV  A,D
0a38                          cd d0 c3       CALL c3d0
0a3b                          7e             MOV  A,(HL)
0a3c                          cd d0 c3       CALL c3d0
0a3f                          cd 27 c4       CALL c427
0a42                          c8             RZ
0a43                          23             INX  HL
0a44                          c3 0b 8f       JMP  8f0b
0a47                          cd eb 8e       CALL 8eeb
0a4a                          c3 9a 8d       JMP  8d9a
0a4d                          af             XRA  A
0a4e                          b4             ORA  H
0a4f                          b5             ORA  L
0a50                          b2             ORA  D
0a51                          b3             ORA  E
0a52                          ca 2b 8f       JZ   8f2b
0a55                          cd 22 c4       CALL c422
0a58                          c3 9a 8d       JMP  8d9a
0a5b                          cd f9 c3       CALL c3f9
0a5e                          c3 9a 8d       JMP  8d9a
0a61                          3e ff          MVI  A, ff
0a63                          cd 77 c3       CALL c377
0a66                          6f             MOV  L,A
0a67                          3e 08          MVI  A, 8
0a69                          cd 77 c3       CALL c377
0a6c                          67             MOV  H,A
0a6d                          3e 08          MVI  A, 8
0a6f                          cd 77 c3       CALL c377
0a72                          5f             MOV  E,A
0a73                          3e 08          MVI  A, 8
0a75                          cd 77 c3       CALL c377
0a78                          57             MOV  D,A
0a79                          3e 08          MVI  A, 8
0a7b                          cd 77 c3       CALL c377
0a7e                          be             CMP  (HL)
0a7f                          c2 5c 8f       JNZ  8f5c
0a82                          cd 27 c4       CALL c427
0a85                          ca 66 8f       JZ   8f66
0a88                          23             INX  HL
0a89                          c3 49 8f       JMP  8f49
0a8c                          21 ed 8d       LXI  HL, 8ded
0a8f                          cd 38 c4       CALL c438
0a92                          c9             RET
0a93                          cd 31 8f       CALL 8f31
0a96                          c3 9a 8d       JMP  8d9a
0a99                          00             NOOP
0a9a                          00             NOOP
0a9b                          00             NOOP
0a9c                          08             NOOP
0a9d                          00             NOOP
0a9e                          08             NOOP
0a9f                          00             NOOP
0aa0                          44             MOV  B,H
0aa1                          2d             DCR  L
0aa2                          8e             ADC  (HL)
0aa3                          4d             MOV  C,L
0aa4                          38             NOOP
0aa5                          8e             ADC  (HL)
0aa6                          46             MOV  B,(HL)
0aa7                          43             MOV  B,E
0aa8                          8e             ADC  (HL)
0aa9                          53             MOV  D,E
0aaa                          4e             MOV  C,(HL)
0aab                          8e             ADC  (HL)
0aac                          4a             MOV  C,D
0aad                          8e             ADC  (HL)
0aae                          8e             ADC  (HL)
0aaf                          43             MOV  B,E
0ab0                          94             SUB  H
0ab1                          8e             ADC  (HL)
0ab2                          54             MOV  D,H
0ab3                          e5             PUSH HL
0ab4                          8e             ADC  (HL)
0ab5                          4f             MOV  C,A
0ab6                          17             RAL
0ab7                          8f             ADC  A
0ab8                          56             MOV  D,(HL)
0ab9                          63             MOV  H,E
0aba                          8f             ADC  A
0abb                          49             MOV  C,C
0abc                          1d             DCR  E
0abd                          8f             ADC  A
0abe                          ff             RST 7
0abf                          40             MOV  B,B
0ac0                          cd d0 c3       CALL c3d0
0ac3                          7c             MOV  A,H
0ac4                          cd d0 c3       CALL c3d0
0ac7                          c3 03 8f       JMP  8f03
0aca                          00             NOOP
0acb                          00             NOOP
0acc                          00             NOOP
0acd                          00             NOOP
0ace                          00             NOOP
0acf                          00             NOOP
0ad0                          31 ff 3f       LXI  SP, 3fff
0ad3                          af             XRA  A
0ad4                          32 f3 8f       STA  (8ff3)
0ad7                          c3 9d 8d       JMP  8d9d
0ada                          00             NOOP
0adb                          00             NOOP
0adc                          00             NOOP
0add                          00             NOOP
0ade                          00             NOOP
0adf                          00             NOOP
0ae0                          31 ff 3f       LXI  SP, 3fff
0ae3                          c3 97 1a       JMP  1a97
0ae6                          23             INX  HL
0ae7                          e3             XTHL
0ae8                          7e             MOV  A,(HL)
0ae9                          e3             XTHL
0aea                          be             CMP  (HL)
0aeb                          23             INX  HL
0aec                          e3             XTHL
0aed                          c2 d0 02       JNZ  02d0
0af0                          23             INX  HL
0af1                          7e             MOV  A,(HL)
0af2                          fe 3a          CPI  3a
0af4                          d0             RNC
0af5                          c3 d0 05       JMP  05d0
0af8                          f5             PUSH PSW
0af9                          3a 17 02       LDA  (0217)
0afc                          b7             ORA  A
0afd                          c3 b7 04       JMP  04b7
0b00                          7c             MOV  A,H
0b01                          92             SUB  D
0b02                          c0             RNZ
0b03                          7d             MOV  A,L
0b04                          93             SUB  E
0b05                          c9             RET
0b06                          01 01 3a       LXI  BC, 3a01
0b09                          50             MOV  D,B
0b0a                          02             STAX BC
0b0b                          b7             ORA  A
0b0c                          c2 ca 12       JNZ  12ca
0b0f                          c9             RET
0b10                          e3             XTHL
0b11                          22 41 00       SHLD (0041)
0b14                          e1             POP  HL
0b15                          c3 3b 00       JMP  003b
0b18                          c9             RET
0b19                          00             NOOP
0b1a                          00             NOOP
0b1b                          4e             MOV  C,(HL)
0b1c                          23             INX  HL
0b1d                          46             MOV  B,(HL)
0b1e                          23             INX  HL
0b1f                          c5             PUSH BC
0b20                          c3 df 09       JMP  09df
0b23                          d4 12 92       CNC  9212
0b26                          13             INX  DE
0b27                          e8             RPE
0b28                          12             STAX DE
0b29                          36 17          MVI  (HL), 17
0b2b                          7a             MOV  A,D
0b2c                          0c             INR  C
0b2d                          75             MOV  (HL),L
0b2e                          0f             RRC
0b2f                          a8             XRA  B
0b30                          0c             INR  C
0b31                          54             MOV  D,H
0b32                          15             DCR  D
0b33                          2a 16 7e       LHLD (7e16
0b36                          11 99 15       LXI  DE, 1599
0b39                          60             MOV  H,B
0b3a                          16 66          MVI  D, 66
0b3c                          16 c3          MVI  D, c3
0b3e                          16 d8          MVI  D, d8
0b40                          16 24          MVI  D, 24
0b42                          17             RAL
0b43                          e7             RST 4
0b44                          0e 1f          MVI  C, 1f
0b46                          0d             DCR  C
0b47                          c8             RZ
0b48                          0f             RRC
0b49                          f6 0e          ORI  e
0b4b                          04             INR  B
0b4c                          0f             RRC
0b4d                          14             INR  D
0b4e                          0f             RRC
0b4f                          44             MOV  B,H
0b50                          0f             RRC
0b51                          4e             MOV  C,(HL)
0b52                          0f             RRC
0b53                          79             MOV  A,C
0b54                          4c             MOV  C,H
0b55                          14             INR  D
0b56                          79             MOV  A,C
0b57                          7d             MOV  A,L
0b58                          10             NOOP
0b59                          7b             MOV  A,E
0b5a                          ba             CMP  D
0b5b                          11 7b 18       LXI  DE, 187b
0b5e                          12             STAX DE
0b5f                          7f             MOV  A,A
0b60                          5d             MOV  E,L
0b61                          15             DCR  D
0b62                          50             MOV  D,B
0b63                          77             MOV  (HL),A
0b64                          0a             LDAX BC
0b65                          46             MOV  B,(HL)
0b66                          76             HLT
0b67                          0a             LDAX BC
0b68                          43             MOV  B,E
0b69                          4c             MOV  C,H
0b6a                          d3 46          OUT  46
0b6c                          4f             MOV  C,A
0b6d                          d2 4e 45       JNC  454e
0b70                          58             MOV  E,B
0b71                          d4 44 41       CNC  4144
0b74                          54             MOV  D,H
0b75                          c1             POP  BC
0b76                          49             MOV  C,C
0b77                          4e             MOV  C,(HL)
0b78                          50             MOV  D,B
0b79                          55             MOV  D,L
0b7a                          d4 44 49       CNC  4944
0b7d                          cd 52 45       CALL 4552
0b80                          41             MOV  B,C
0b81                          c4 43 55       CNZ  5543
0b84                          d2 47 4f       JNC  4f47
0b87                          54             MOV  D,H
0b88                          cf             RST 1
0b89                          52             MOV  D,D
0b8a                          55             MOV  D,L
0b8b                          ce 49          ACI  49
0b8d                          c6 52          ADI  52
0b8f                          45             MOV  B,L
0b90                          53             MOV  D,E
0b91                          54             MOV  D,H
0b92                          4f             MOV  C,A
0b93                          52             MOV  D,D
0b94                          c5             PUSH BC
0b95                          47             MOV  B,A
0b96                          4f             MOV  C,A
0b97                          53             MOV  D,E
0b98                          55             MOV  D,L
0b99                          c2 52 45       JNZ  4552
0b9c                          54             MOV  D,H
0b9d                          55             MOV  D,L
0b9e                          52             MOV  D,D
0b9f                          ce 52          ACI  52
0ba1                          45             MOV  B,L
0ba2                          cd 53 54       CALL 5453
0ba5                          4f             MOV  C,A
0ba6                          d0             RNC
0ba7                          44             MOV  B,H
0ba8                          50             MOV  D,B
0ba9                          cc 4f ce       CZ   ce4f
0bac                          50             MOV  D,B
0bad                          4c             MOV  C,H
0bae                          4f             MOV  C,A
0baf                          d4 4c 49       CNC  494c
0bb2                          4e             MOV  C,(HL)
0bb3                          c5             PUSH BC
0bb4                          50             MOV  D,B
0bb5                          4f             MOV  C,A
0bb6                          4b             MOV  C,E
0bb7                          c5             PUSH BC
0bb8                          50             MOV  D,B
0bb9                          52             MOV  D,D
0bba                          49             MOV  C,C
0bbb                          4e             MOV  C,(HL)
0bbc                          d4 44 45       CNC  4544
0bbf                          c6 43          ADI  43
0bc1                          4f             MOV  C,A
0bc2                          4e             MOV  C,(HL)
0bc3                          d4 4c 49       CNC  494c
0bc6                          53             MOV  D,E
0bc7                          d4 43 4c       CNC  4c43
0bca                          45             MOV  B,L
0bcb                          41             MOV  B,C
0bcc                          d2 4d 4c       JNC  4c4d
0bcf                          4f             MOV  C,A
0bd0                          41             MOV  B,C
0bd1                          c4 4d 53       CNZ  534d
0bd4                          41             MOV  B,C
0bd5                          56             MOV  D,(HL)
0bd6                          c5             PUSH BC
0bd7                          4e             MOV  C,(HL)
0bd8                          45             MOV  B,L
0bd9                          d7             RST 2
0bda                          54             MOV  D,H
0bdb                          41             MOV  B,C
0bdc                          42             MOV  B,D
0bdd                          a8             XRA  B
0bde                          54             MOV  D,H
0bdf                          cf             RST 1
0be0                          53             MOV  D,E
0be1                          50             MOV  D,B
0be2                          43             MOV  B,E
0be3                          a8             XRA  B
0be4                          46             MOV  B,(HL)
0be5                          ce 54          ACI  54
0be7                          48             MOV  C,B
0be8                          45             MOV  B,L
0be9                          ce 4e          ACI  4e
0beb                          4f             MOV  C,A
0bec                          d4 53 54       CNC  5453
0bef                          45             MOV  B,L
0bf0                          d0             RNC
0bf1                          ab             XRA  E
0bf2                          ad             XRA  L
0bf3                          aa             XRA  D
0bf4                          af             XRA  A
0bf5                          de 41          SBI  41
0bf7                          4e             MOV  C,(HL)
0bf8                          c4 4f d2       CNZ  d24f
0bfb                          be             CMP  (HL)
0bfc                          bd             CMP  L
0bfd                          bc             CMP  H
0bfe                          53             MOV  D,E
0bff                          47             MOV  B,A
0c00                          ce 49          ACI  49
0c02                          4e             MOV  C,(HL)
0c03                          d4 41 42       CNC  4241
0c06                          d3 55          OUT  55
0c08                          53             MOV  D,E
0c09                          d2 46 52       JNC  5246
0c0c                          c5             PUSH BC
0c0d                          49             MOV  C,C
0c0e                          4e             MOV  C,(HL)
0c0f                          d0             RNC
0c10                          50             MOV  D,B
0c11                          4f             MOV  C,A
0c12                          d3 53          OUT  53
0c14                          51             MOV  D,C
0c15                          d2 52 4e       JNC  4e52
0c18                          c4 4c 4f       CNZ  4f4c
0c1b                          c7             RST 0
0c1c                          45             MOV  B,L
0c1d                          58             MOV  E,B
0c1e                          d0             RNC
0c1f                          43             MOV  B,E
0c20                          4f             MOV  C,A
0c21                          d3 53          OUT  53
0c23                          49             MOV  C,C
0c24                          ce 54          ACI  54
0c26                          41             MOV  B,C
0c27                          ce 41          ACI  41
0c29                          54             MOV  D,H
0c2a                          ce 50          ACI  50
0c2c                          45             MOV  B,L
0c2d                          45             MOV  B,L
0c2e                          cb 4c 45       JMP  454c
0c31                          ce 53          ACI  53
0c33                          54             MOV  D,H
0c34                          52             MOV  D,D
0c35                          a4             ANA  H
0c36                          56             MOV  D,(HL)
0c37                          41             MOV  B,C
0c38                          cc 41 53       CZ   5341
0c3b                          c3 43 48       JMP  4843
0c3e                          52             MOV  D,D
0c3f                          a4             ANA  H
0c40                          4c             MOV  C,H
0c41                          45             MOV  B,L
0c42                          46             MOV  B,(HL)
0c43                          54             MOV  D,H
0c44                          a4             ANA  H
0c45                          52             MOV  D,D
0c46                          49             MOV  C,C
0c47                          47             MOV  B,A
0c48                          48             MOV  C,B
0c49                          54             MOV  D,H
0c4a                          a4             ANA  H
0c4b                          4d             MOV  C,L
0c4c                          49             MOV  C,C
0c4d                          44             MOV  B,H
0c4e                          a4             ANA  H
0c4f                          00             NOOP
0c50                          94             SUB  H
0c51                          17             RAL
0c52                          35             DCR  (HL)
0c53                          05             DCR  B
0c54                          1d             DCR  E
0c55                          09             DAD  BC
0c56                          f9             SPHL
0c57                          06 52          MVI  B, 52
0c59                          08             NOOP
0c5a                          15             DCR  D
0c5b                          0b             DCX  BC
0c5c                          79             MOV  A,C
0c5d                          08             NOOP
0c5e                          6a             MOV  L,D
0c5f                          17             RAL
0c60                          c7             RST 0
0c61                          06 ab          MVI  B, ab
0c63                          06 78          MVI  B, 78
0c65                          07             RLC
0c66                          db 05          IN   5
0c68                          b7             ORA  A
0c69                          06 e3          MVI  B, e3
0c6b                          06 fb          MVI  B, fb
0c6d                          06 ef          MVI  B, ef
0c6f                          05             DCR  B
0c70                          27             DAA
0c71                          18             NOOP
0c72                          5c             MOV  E,H
0c73                          07             RLC
0c74                          b6             ORA  (HL)
0c75                          17             RAL
0c76                          27             DAA
0c77                          1a             LDAX DE
0c78                          2c             INR  L
0c79                          17             RAL
0c7a                          91             SUB  C
0c7b                          07             RLC
0c7c                          b0             ORA  B
0c7d                          0c             INR  C
0c7e                          17             RAL
0c7f                          06 ee          MVI  B, ee
0c81                          04             INR  B
0c82                          82             ADC  D
0c83                          06 05          MVI  B, 5
0c85                          19             DAD  DE
0c86                          ee 18          XRI  {operand1.toString(16)}
0c88                          9d             SBB  L
0c89                          03             INX  BC
0c8a                          30             NOOP
0c8b                          b1             ORA  C
0c8c                          30             NOOP
0c8d                          b2             ORA  D
0c8e                          30             NOOP
0c8f                          b3             ORA  E
0c90                          30             NOOP
0c91                          b4             ORA  H
0c92                          30             NOOP
0c93                          b5             ORA  L
0c94                          30             NOOP
0c95                          b6             ORA  (HL)
0c96                          30             NOOP
0c97                          b7             ORA  A
0c98                          30             NOOP
0c99                          b8             CMP  B
0c9a                          30             NOOP
0c9b                          b9             CMP  C
0c9c                          31 b0 31       LXI  SP, 31b0
0c9f                          b1             ORA  C
0ca0                          31 b2 31       LXI  SP, 31b2
0ca3                          b3             ORA  E
0ca4                          31 b4 31       LXI  SP, 31b4
0ca7                          b5             ORA  L
0ca8                          31 b6 31       LXI  SP, 31b6
0cab                          b7             ORA  A
0cac                          31 b8 2c       LXI  SP, 2cb8
0caf                          4f             MOV  C,A
0cb0                          00             NOOP
0cb1                          00             NOOP
0cb2                          00             NOOP
0cb3                          9e             SBB  (HL)
0cb4                          35             DCR  (HL)
0cb5                          30             NOOP
0cb6                          30             NOOP
0cb7                          30             NOOP
0cb8                          3a 82 54       LDA  (5482)
0cbb                          00             NOOP
0cbc                          00             NOOP
0cbd                          00             NOOP
0cbe                          30             NOOP
0cbf                          3a 4e 45       LDA  (454e)
0cc2                          58             MOV  E,B
0cc3                          54             MOV  D,H
0cc4                          54             MOV  D,H
0cc5                          00             NOOP
0cc6                          2c             INR  L
0cc7                          31 32 30       LXI  SP, 3032
0cca                          3a 82 4a       LDA  (4a82)
0ccd                          00             NOOP
0cce                          00             NOOP
0ccf                          00             NOOP
0cd0                          3a 4c 49       LDA  (494c)
0cd3                          4e             MOV  C,(HL)
0cd4                          45             MOV  B,L
0cd5                          4a             MOV  C,D
0cd6                          2c             INR  L
0cd7                          31 32 30       LXI  SP, 3032
0cda                          3a 4e 45       LDA  (454e)
0cdd                          58             MOV  E,B
0cde                          54             MOV  D,H
0cdf                          4a             MOV  C,D
0ce0                          00             NOOP
0ce1                          54             MOV  D,H
0ce2                          52             MOV  D,D
0ce3                          00             NOOP
0ce4                          31 36 29       LXI  SP, 2936
0ce7                          3a 4e 45       LDA  (454e)
0cea                          58             MOV  E,B
0ceb                          54             MOV  D,H
0cec                          52             MOV  D,D
0ced                          3a 52 45       LDA  (4552)
0cf0                          54             MOV  D,H
0cf1                          55             MOV  D,L
0cf2                          52             MOV  D,D
0cf3                          4e             MOV  C,(HL)
0cf4                          00             NOOP
0cf5                          00             NOOP
0cf6                          00             NOOP
0cf7                          00             NOOP
0cf8                          00             NOOP
0cf9                          01 00 ff       LXI  BC, ff00
0cfc                          8c             ADC  H
0cfd                          1f             RAR
0cfe                          02             STAX BC
0cff                          06 00          MVI  B, 0
0d01                          6b             MOV  L,E
0d02                          02             STAX BC
0d03                          01 00 89       LXI  BC, 8900
0d06                          17             RAL
0d07                          00             NOOP
0d08                          00             NOOP
0d09                          00             NOOP
0d0a                          00             NOOP
0d0b                          06 00          MVI  B, 0
0d0d                          6b             MOV  L,E
0d0e                          02             STAX BC
0d0f                          ff             RST 7
0d10                          8c             ADC  H
0d11                          6f             MOV  L,A
0d12                          1c             INR  E
0d13                          ae             XRA  (HL)
0d14                          06 00          MVI  B, 0
0d16                          ef             RST 5
0d17                          00             NOOP
0d18                          20             NOOP
0d19                          6f             MOV  L,A
0d1a                          1c             INR  E
0d1b                          ff             RST 7
0d1c                          ff             RST 7
0d1d                          d3 04          OUT  4
0d1f                          00             NOOP
0d20                          00             NOOP
0d21                          cd 8c 51       CALL 518c
0d24                          1b             DCX  DE
0d25                          03             INX  BC
0d26                          20             NOOP
0d27                          03             INX  BC
0d28                          20             NOOP
0d29                          03             INX  BC
0d2a                          20             NOOP
0d2b                          00             NOOP
0d2c                          20             NOOP
0d2d                          1f             RAR
0d2e                          02             STAX BC
0d2f                          00             NOOP
0d30                          30             NOOP
0d31                          f8             RM
0d32                          20             NOOP
0d33                          31 32 33       LXI  SP, 3332
0d36                          35             DCR  (HL)
0d37                          00             NOOP
0d38                          30             NOOP
0d39                          30             NOOP
0d3a                          00             NOOP
0d3b                          00             NOOP
0d3c                          00             NOOP
0d3d                          00             NOOP
0d3e                          00             NOOP
0d3f                          6f             MOV  L,A
0d40                          7b             MOV  A,E
0d41                          69             MOV  L,C
0d42                          62             MOV  H,D
0d43                          6b             MOV  L,E
0d44                          e1             POP  HL
0d45                          00             NOOP
0d46                          20             NOOP
0d47                          20             NOOP
0d48                          77             MOV  (HL),A
0d49                          a0             ANA  B
0d4a                          00             NOOP
0d4b                          0d             DCR  C
0d4c                          0a             LDAX BC
0d4d                          bd             CMP  L
0d4e                          3e 0d          MVI  A, d
0d50                          0a             LDAX BC
0d51                          00             NOOP
0d52                          0d             DCR  C
0d53                          0a             LDAX BC
0d54                          73             MOV  (HL),E
0d55                          74             MOV  (HL),H
0d56                          6f             MOV  L,A
0d57                          70             MOV  (HL),B
0d58                          a0             ANA  B
0d59                          00             NOOP
0d5a                          21 04 00       LXI  HL, 0004
0d5d                          39             DAD  SP
0d5e                          7e             MOV  A,(HL)
0d5f                          23             INX  HL
0d60                          fe 81          CPI  81
0d62                          c0             RNZ
0d63                          4e             MOV  C,(HL)
0d64                          23             INX  HL
0d65                          46             MOV  B,(HL)
0d66                          23             INX  HL
0d67                          e5             PUSH HL
0d68                          69             MOV  L,C
0d69                          60             MOV  H,B
0d6a                          7a             MOV  A,D
0d6b                          b3             ORA  E
0d6c                          eb             XCHG
0d6d                          ca 92 02       JZ   0292
0d70                          eb             XCHG
0d71                          e7             RST 4
0d72                          01 0d 00       LXI  BC, 000d
0d75                          e1             POP  HL
0d76                          c8             RZ
0d77                          09             DAD  BC
0d78                          c3 7e 02       JMP  027e
0d7b                          cd bb 02       CALL 02bb
0d7e                          c5             PUSH BC
0d7f                          e3             XTHL
0d80                          c1             POP  BC
0d81                          e7             RST 4
0d82                          7e             MOV  A,(HL)
0d83                          02             STAX BC
0d84                          c8             RZ
0d85                          0b             DCX  BC
0d86                          2b             DCX  HL
0d87                          c3 a1 02       JMP  02a1
0d8a                          e3             XTHL
0d8b                          4e             MOV  C,(HL)
0d8c                          23             INX  HL
0d8d                          e3             XTHL
0d8e                          e5             PUSH HL
0d8f                          2a 49 02       LHLD (0249
0d92                          06 00          MVI  B, 0
0d94                          09             DAD  BC
0d95                          09             DAD  BC
0d96                          cd bb 02       CALL 02bb
0d99                          e1             POP  HL
0d9a                          c9             RET
0d9b                          d5             PUSH DE
0d9c                          eb             XCHG
0d9d                          21 da ff       LXI  HL, ffda
0da0                          39             DAD  SP
0da1                          e7             RST 4
0da2                          eb             XCHG
0da3                          d1             POP  DE
0da4                          d0             RNC
0da5                          1e 0c          MVI  E, c
0da7                          c3 d8 02       JMP  02d8
0daa                          2a 33 02       LHLD (0233
0dad                          22 3b 02       SHLD (023b)
0db0                          1e 02          MVI  E, 2
0db2                          01 1e 14       LXI  BC, 141e
0db5                          01 1e 00       LXI  BC, 001e
0db8                          cd c2 03       CALL 03c2
0dbb                          af             XRA  A
0dbc                          32 17 02       STA  (0217)
0dbf                          cd dc 07       CALL 07dc
0dc2                          21 aa 01       LXI  HL, 01aa
0dc5                          57             MOV  D,A
0dc6                          3e 3f          MVI  A, 3f
0dc8                          df             RST 3
0dc9                          19             DAD  DE
0dca                          7e             MOV  A,(HL)
0dcb                          df             RST 3
0dcc                          d7             RST 2
0dcd                          df             RST 3
0dce                          21 5f 02       LXI  HL, 025f
0dd1                          cd 93 0d       CALL 0d93
0dd4                          2a 3b 02       LHLD (023b
0dd7                          7c             MOV  A,H
0dd8                          a5             ANA  L
0dd9                          3c             INR  A
0dda                          c4 5d 14       CNZ  145d
0ddd                          af             XRA  A
0dde                          32 17 02       STA  (0217)
0de1                          21 ff ff       LXI  HL, ffff
0de4                          22 3b 02       SHLD (023b)
0de7                          21 6b 02       LXI  HL, 026b
0dea                          cd 93 0d       CALL 0d93
0ded                          cd 80 04       CALL 0480
0df0                          d7             RST 2
0df1                          3c             INR  A
0df2                          3d             DCR  A
0df3                          ca 0d 03       JZ   030d
0df6                          f5             PUSH PSW
0df7                          cd 61 06       CALL 0661
0dfa                          d5             PUSH DE
0dfb                          cd e6 03       CALL 03e6
0dfe                          47             MOV  B,A
0dff                          d1             POP  DE
0e00                          f1             POP  PSW
0e01                          d2 ad 05       JNC  05ad
0e04                          d5             PUSH DE
0e05                          c5             PUSH BC
0e06                          d7             RST 2
0e07                          f5             PUSH PSW
0e08                          cd 85 03       CALL 0385
0e0b                          c5             PUSH BC
0e0c                          d2 41 03       JNC  0341
0e0f                          eb             XCHG
0e10                          2a 45 02       LHLD (0245
0e13                          1a             LDAX DE
0e14                          02             STAX BC
0e15                          03             INX  BC
0e16                          13             INX  DE
0e17                          e7             RST 4
0e18                          d2 33 03       JNC  0333
0e1b                          60             MOV  H,B
0e1c                          69             MOV  L,C
0e1d                          23             INX  HL
0e1e                          22 45 02       SHLD (0245)
0e21                          d1             POP  DE
0e22                          f1             POP  PSW
0e23                          ca 68 03       JZ   0368
0e26                          2a 45 02       LHLD (0245
0e29                          e3             XTHL
0e2a                          c1             POP  BC
0e2b                          09             DAD  BC
0e2c                          e5             PUSH HL
0e2d                          cd 9b 02       CALL 029b
0e30                          e1             POP  HL
0e31                          22 45 02       SHLD (0245)
0e34                          eb             XCHG
0e35                          74             MOV  (HL),H
0e36                          23             INX  HL
0e37                          23             INX  HL
0e38                          d1             POP  DE
0e39                          73             MOV  (HL),E
0e3a                          23             INX  HL
0e3b                          72             MOV  (HL),D
0e3c                          23             INX  HL
0e3d                          11 cf 01       LXI  DE, 01cf
0e40                          1a             LDAX DE
0e41                          77             MOV  (HL),A
0e42                          23             INX  HL
0e43                          13             INX  DE
0e44                          b7             ORA  A
0e45                          c2 60 03       JNZ  0360
0e48                          cd a9 03       CALL 03a9
0e4b                          23             INX  HL
0e4c                          54             MOV  D,H
0e4d                          5d             MOV  E,L
0e4e                          7e             MOV  A,(HL)
0e4f                          23             INX  HL
0e50                          b6             ORA  (HL)
0e51                          ca 0d 03       JZ   030d
0e54                          23             INX  HL
0e55                          23             INX  HL
0e56                          23             INX  HL
0e57                          af             XRA  A
0e58                          be             CMP  (HL)
0e59                          23             INX  HL
0e5a                          c2 78 03       JNZ  0378
0e5d                          eb             XCHG
0e5e                          73             MOV  (HL),E
0e5f                          23             INX  HL
0e60                          72             MOV  (HL),D
0e61                          eb             XCHG
0e62                          c3 6c 03       JMP  036c
0e65                          2a 43 02       LHLD (0243
0e68                          44             MOV  B,H
0e69                          4d             MOV  C,L
0e6a                          7e             MOV  A,(HL)
0e6b                          23             INX  HL
0e6c                          b6             ORA  (HL)
0e6d                          2b             DCX  HL
0e6e                          c8             RZ
0e6f                          c5             PUSH BC
0e70                          f7             RST 6
0e71                          f7             RST 6
0e72                          e1             POP  HL
0e73                          e7             RST 4
0e74                          e1             POP  HL
0e75                          c1             POP  BC
0e76                          3f             CMC
0e77                          c8             RZ
0e78                          3f             CMC
0e79                          d0             RNC
0e7a                          c3 88 03       JMP  0388
0e7d                          c0             RNZ
0e7e                          2a 43 02       LHLD (0243
0e81                          af             XRA  A
0e82                          77             MOV  (HL),A
0e83                          23             INX  HL
0e84                          77             MOV  (HL),A
0e85                          23             INX  HL
0e86                          22 45 02       SHLD (0245)
0e89                          2a 43 02       LHLD (0243
0e8c                          2b             DCX  HL
0e8d                          22 37 02       SHLD (0237)
0e90                          2a 1b 02       LHLD (021b
0e93                          22 2f 02       SHLD (022f)
0e96                          cd db 05       CALL 05db
0e99                          2a 45 02       LHLD (0245
0e9c                          22 47 02       SHLD (0247)
0e9f                          22 49 02       SHLD (0249)
0ea2                          c1             POP  BC
0ea3                          2a 41 02       LHLD (0241
0ea6                          f9             SPHL
0ea7                          21 1f 02       LXI  HL, 021f
0eaa                          22 1d 02       SHLD (021d)
0ead                          21 00 00       LXI  HL, 0000
0eb0                          e5             PUSH HL
0eb1                          22 3f 02       SHLD (023f)
0eb4                          2a 37 02       LHLD (0237
0eb7                          af             XRA  A
0eb8                          32 35 02       STA  (0235)
0ebb                          c5             PUSH BC
0ebc                          c9             RET
0ebd                          3e 3f          MVI  A, 3f
0ebf                          df             RST 3
0ec0                          3e 20          MVI  A, 20
0ec2                          df             RST 3
0ec3                          c3 80 04       JMP  0480
0ec6                          af             XRA  A
0ec7                          32 1a 02       STA  (021a)
0eca                          0e 05          MVI  C, 5
0ecc                          11 cf 01       LXI  DE, 01cf
0ecf                          7e             MOV  A,(HL)
0ed0                          fe 20          CPI  20
0ed2                          ca 39 04       JZ   0439
0ed5                          47             MOV  B,A
0ed6                          fe 22          CPI  22
0ed8                          ca 59 04       JZ   0459
0edb                          b7             ORA  A
0edc                          ca 6d 04       JZ   046d
0edf                          3a 1a 02       LDA  (021a)
0ee2                          b7             ORA  A
0ee3                          47             MOV  B,A
0ee4                          7e             MOV  A,(HL)
0ee5                          c2 39 04       JNZ  0439
0ee8                          fe 3f          CPI  3f
0eea                          3e 95          MVI  A, 95
0eec                          ca 39 04       JZ   0439
0eef                          7e             MOV  A,(HL)
0ef0                          fe 30          CPI  30
0ef2                          da 1a 04       JC   041a
0ef5                          fe 3c          CPI  3c
0ef7                          da 39 04       JC   0439
0efa                          d5             PUSH DE
0efb                          11 87 00       LXI  DE, 0087
0efe                          e5             PUSH HL
0eff                          3e d7          MVI  A, d7
0f01                          13             INX  DE
0f02                          1a             LDAX DE
0f03                          e6             ANI  7f
0f04                          7f             MOV  A,A
0f05                          ca 36 04       JZ   0436
0f08                          be             CMP  (HL)
0f09                          c2 60 04       JNZ  0460
0f0c                          1a             LDAX DE
0f0d                          b7             ORA  A
0f0e                          f2 20 04       JP   0420
0f11                          f1             POP  PSW
0f12                          78             MOV  A,B
0f13                          f6 80          ORI  80
0f15                          f2 e1 7e       JP   7ee1
0f18                          d1             POP  DE
0f19                          23             INX  HL
0f1a                          12             STAX DE
0f1b                          13             INX  DE
0f1c                          0c             INR  C
0f1d                          d6 3a          SUI  3a
0f1f                          ca 47 04       JZ   0447
0f22                          fe 49          CPI  49
0f24                          c2 4a 04       JNZ  044a
0f27                          32 1a 02       STA  (021a)
0f2a                          d6 54          SUI  54
0f2c                          c2 ef 03       JNZ  03ef
0f2f                          47             MOV  B,A
0f30                          7e             MOV  A,(HL)
0f31                          b7             ORA  A
0f32                          ca 6d 04       JZ   046d
0f35                          b8             CMP  B
0f36                          ca 39 04       JZ   0439
0f39                          23             INX  HL
0f3a                          12             STAX DE
0f3b                          0c             INR  C
0f3c                          13             INX  DE
0f3d                          c3 50 04       JMP  0450
0f40                          e1             POP  HL
0f41                          e5             PUSH HL
0f42                          04             INR  B
0f43                          eb             XCHG
0f44                          b6             ORA  (HL)
0f45                          23             INX  HL
0f46                          f2 64 04       JP   0464
0f49                          eb             XCHG
0f4a                          c3 22 04       JMP  0422
0f4d                          21 ce 01       LXI  HL, 01ce
0f50                          12             STAX DE
0f51                          13             INX  DE
0f52                          12             STAX DE
0f53                          13             INX  DE
0f54                          12             STAX DE
0f55                          c9             RET
0f56                          05             DCR  B
0f57                          2b             DCX  HL
0f58                          df             RST 3
0f59                          c2 85 04       JNZ  0485
0f5c                          df             RST 3
0f5d                          cd dc 07       CALL 07dc
0f60                          21 cf 01       LXI  HL, 01cf
0f63                          06 01          MVI  B, 1
0f65                          cd d8 04       CALL 04d8
0f68                          fe 08          CPI  8
0f6a                          ca 76 04       JZ   0476
0f6d                          fe 0d          CPI  d
0f6f                          ca d7 07       JZ   07d7
0f72                          fe 18          CPI  18
0f74                          ca 7c 04       JZ   047c
0f77                          fe 8a          CPI  8a
0f79                          ca a0 1a       JZ   1aa0
0f7c                          fe 01          CPI  1
0f7e                          da 85 04       JC   0485
0f81                          fe 80          CPI  80
0f83                          d2 60 1a       JNC  1a60
0f86                          4f             MOV  C,A
0f87                          78             MOV  A,B
0f88                          fe 48          CPI  48
0f8a                          3e 07          MVI  A, 7
0f8c                          d2 b3 04       JNC  04b3
0f8f                          79             MOV  A,C
0f90                          71             MOV  (HL),C
0f91                          23             INX  HL
0f92                          04             INR  B
0f93                          df             RST 3
0f94                          c3 85 04       JMP  0485
0f97                          c2 c4 0d       JNZ  0dc4
0f9a                          f1             POP  PSW
0f9b                          f5             PUSH PSW
0f9c                          fe 20          CPI  20
0f9e                          da cd 04       JC   04cd
0fa1                          3a 27 00       LDA  (0027)
0fa4                          fe 40          CPI  40
0fa6                          cc dc 07       CZ   07dc
0fa9                          3c             INR  A
0faa                          32 27 00       STA  (0027)
0fad                          f1             POP  PSW
0fae                          c5             PUSH BC
0faf                          4f             MOV  C,A
0fb0                          f5             PUSH PSW
0fb1                          cd ad 19       CALL 19ad
0fb4                          f1             POP  PSW
0fb5                          c1             POP  BC
0fb6                          00             NOOP
0fb7                          c9             RET
0fb8                          cd 7f 19       CALL 197f
0fbb                          fe 1f          CPI  1f
0fbd                          ca 00 8d       JZ   8d00
0fc0                          00             NOOP
0fc1                          00             NOOP
0fc2                          00             NOOP
0fc3                          fe f8          CPI  f8
0fc5                          c0             RNZ
0fc6                          3a 17 02       LDA  (0217)
0fc9                          2f             CMA
0fca                          32 17 02       STA  (0217)
0fcd                          c9             RET
0fce                          cd 61 06       CALL 0661
0fd1                          c0             RNZ
0fd2                          c1             POP  BC
0fd3                          cd 85 03       CALL 0385
0fd6                          c5             PUSH BC
0fd7                          e1             POP  HL
0fd8                          f7             RST 6
0fd9                          c1             POP  BC
0fda                          78             MOV  A,B
0fdb                          b1             ORA  C
0fdc                          ca fd 02       JZ   02fd
0fdf                          cd e5 05       CALL 05e5
0fe2                          c5             PUSH BC
0fe3                          cd dc 07       CALL 07dc
0fe6                          f7             RST 6
0fe7                          e3             XTHL
0fe8                          cd 65 14       CALL 1465
0feb                          3e 20          MVI  A, 20
0fed                          e1             POP  HL
0fee                          df             RST 3
0fef                          7e             MOV  A,(HL)
0ff0                          b7             ORA  A
0ff1                          23             INX  HL
0ff2                          ca f7 04       JZ   04f7
0ff5                          f2 0e 05       JP   050e
0ff8                          d6 7f          SUI  7f
0ffa                          4f             MOV  C,A
0ffb                          e5             PUSH HL
0ffc                          11 88 00       LXI  DE, 0088
0fff                          d5             PUSH DE
1000                          1a             LDAX DE
1001                          13             INX  DE
1002                          b7             ORA  A
1003                          f2 20 05       JP   0520
1006                          0d             DCR  C
1007                          e1             POP  HL
1008                          c2 1f 05       JNZ  051f
100b                          7e             MOV  A,(HL)
100c                          b7             ORA  A
100d                          fa 0d 05       JM   050d
1010                          df             RST 3
1011                          23             INX  HL
1012                          c3 2b 05       JMP  052b
1015                          3e 64          MVI  A, 64
1017                          32 35 02       STA  (0235)
101a                          cd 10 07       CALL 0710
101d                          e3             XTHL
101e                          cd 7a 02       CALL 027a
1021                          d1             POP  DE
1022                          c2 47 05       JNZ  0547
1025                          09             DAD  BC
1026                          f9             SPHL
1027                          eb             XCHG
1028                          cd aa 02       CALL 02aa
102b                          08             NOOP
102c                          e5             PUSH HL
102d                          cd f9 06       CALL 06f9
1030                          e3             XTHL
1031                          e5             PUSH HL
1032                          2a 3b 02       LHLD (023b
1035                          e3             XTHL
1036                          cd 69 09       CALL 0969
1039                          cf             RST 1
103a                          9e             SBB  (HL)
103b                          cd 66 09       CALL 0966
103e                          e5             PUSH HL
103f                          cd 0d 13       CALL 130d
1042                          e1             POP  HL
1043                          c5             PUSH BC
1044                          d5             PUSH DE
1045                          01 00 81       LXI  BC, 8100
1048                          51             MOV  D,C
1049                          5a             MOV  E,D
104a                          7e             MOV  A,(HL)
104b                          fe a3          CPI  a3
104d                          3e 01          MVI  A, 1
104f                          c2 7c 05       JNZ  057c
1052                          d7             RST 2
1053                          cd 66 09       CALL 0966
1056                          e5             PUSH HL
1057                          cd 0d 13       CALL 130d
105a                          e1             POP  HL
105b                          ef             RST 5
105c                          c5             PUSH BC
105d                          d5             PUSH DE
105e                          f5             PUSH PSW
105f                          33             INX  SP
1060                          e5             PUSH HL
1061                          2a 37 02       LHLD (0237
1064                          e3             XTHL
1065                          06 81          MVI  B, 81
1067                          c5             PUSH BC
1068                          33             INX  SP
1069                          cd 9b 19       CALL 199b
106c                          00             NOOP
106d                          c4 ea 05       CNZ  05ea
1070                          22 37 02       SHLD (0237)
1073                          7e             MOV  A,(HL)
1074                          fe 3a          CPI  3a
1076                          ca ad 05       JZ   05ad
1079                          b7             ORA  A
107a                          c2 d0 02       JNZ  02d0
107d                          23             INX  HL
107e                          7e             MOV  A,(HL)
107f                          23             INX  HL
1080                          b6             ORA  (HL)
1081                          23             INX  HL
1082                          ca f6 05       JZ   05f6
1085                          5e             MOV  E,(HL)
1086                          23             INX  HL
1087                          56             MOV  D,(HL)
1088                          eb             XCHG
1089                          22 3b 02       SHLD (023b)
108c                          eb             XCHG
108d                          d7             RST 2
108e                          11 89 05       LXI  DE, 0589
1091                          d5             PUSH DE
1092                          c8             RZ
1093                          d6 80          SUI  80
1095                          da 10 07       JC   0710
1098                          fe 1d          CPI  1d
109a                          d2 d0 02       JNC  02d0
109d                          07             RLC
109e                          4f             MOV  C,A
109f                          06 00          MVI  B, 0
10a1                          eb             XCHG
10a2                          21 70 01       LXI  HL, 0170
10a5                          09             DAD  BC
10a6                          4e             MOV  C,(HL)
10a7                          23             INX  HL
10a8                          46             MOV  B,(HL)
10a9                          c5             PUSH BC
10aa                          eb             XCHG
10ab                          23             INX  HL
10ac                          7e             MOV  A,(HL)
10ad                          fe 3a          CPI  3a
10af                          d0             RNC
10b0                          fe 20          CPI  20
10b2                          ca cb 05       JZ   05cb
10b5                          fe 30          CPI  30
10b7                          3f             CMC
10b8                          3c             INR  A
10b9                          3d             DCR  A
10ba                          c9             RET
10bb                          eb             XCHG
10bc                          2a 43 02       LHLD (0243
10bf                          2b             DCX  HL
10c0                          22 4b 02       SHLD (024b)
10c3                          eb             XCHG
10c4                          c9             RET
10c5                          cd 9b 19       CALL 199b
10c8                          00             NOOP
10c9                          c8             RZ
10ca                          cd d8 04       CALL 04d8
10cd                          fe 03          CPI  3
10cf                          c0             RNZ
10d0                          f6 c0          ORI  c0
10d2                          22 37 02       SHLD (0237)
10d5                          c1             POP  BC
10d6                          f5             PUSH PSW
10d7                          2a 3b 02       LHLD (023b
10da                          7d             MOV  A,L
10db                          a4             ANA  H
10dc                          3c             INR  A
10dd                          ca 09 06       JZ   0609
10e0                          22 3d 02       SHLD (023d)
10e3                          2a 37 02       LHLD (0237
10e6                          22 3f 02       SHLD (023f)
10e9                          af             XRA  A
10ea                          32 17 02       STA  (0217)
10ed                          f1             POP  PSW
10ee                          21 72 02       LXI  HL, 0272
10f1                          c2 f1 02       JNZ  02f1
10f4                          c3 fd 02       JMP  02fd
10f7                          c0             RNZ
10f8                          1e 20          MVI  E, 20
10fa                          2a 3f 02       LHLD (023f
10fd                          7c             MOV  A,H
10fe                          b5             ORA  L
10ff                          ca d8 02       JZ   02d8
1102                          eb             XCHG
1103                          2a 3d 02       LHLD (023d
1106                          22 3b 02       SHLD (023b)
1109                          eb             XCHG
110a                          c9             RET
110b                          cd b9 0f       CALL 0fb9
110e                          c0             RNZ
110f                          3c             INR  A
1110                          fe 40          CPI  40
1112                          d2 5c 06       JNC  065c
1115                          32 26 00       STA  (0026)
1118                          c9             RET
1119                          7e             MOV  A,(HL)
111a                          fe 41          CPI  41
111c                          d8             RC
111d                          fe 5b          CPI  5b
111f                          3f             CMC
1120                          c9             RET
1121                          d7             RST 2
1122                          cd 66 09       CALL 0966
1125                          ef             RST 5
1126                          fa 5c 06       JM   065c
1129                          3a 50 02       LDA  (0250)
112c                          fe 90          CPI  90
112e                          da 67 13       JC   1367
1131                          01 80 90       LXI  BC, 9080
1134                          11 00 00       LXI  DE, 0000
1137                          cd 3c 13       CALL 133c
113a                          51             MOV  D,C
113b                          c8             RZ
113c                          1e 08          MVI  E, 8
113e                          c3 d8 02       JMP  02d8
1141                          2b             DCX  HL
1142                          11 00 00       LXI  DE, 0000
1145                          d7             RST 2
1146                          d0             RNC
1147                          e5             PUSH HL
1148                          f5             PUSH PSW
1149                          21 98 19       LXI  HL, 1998
114c                          e7             RST 4
114d                          da d0 02       JC   02d0
1150                          62             MOV  H,D
1151                          6b             MOV  L,E
1152                          19             DAD  DE
1153                          29             DAD  HL
1154                          19             DAD  DE
1155                          29             DAD  HL
1156                          f1             POP  PSW
1157                          d6 30          SUI  30
1159                          5f             MOV  E,A
115a                          16 00          MVI  D, 0
115c                          19             DAD  DE
115d                          eb             XCHG
115e                          e1             POP  HL
115f                          c3 65 06       JMP  0665
1162                          ca ad 03       JZ   03ad
1165                          cd 42 06       CALL 0642
1168                          2b             DCX  HL
1169                          d7             RST 2
116a                          c0             RNZ
116b                          e5             PUSH HL
116c                          2a 1b 02       LHLD (021b
116f                          7d             MOV  A,L
1170                          93             SUB  E
1171                          5f             MOV  E,A
1172                          7c             MOV  A,H
1173                          9a             SBB  D
1174                          57             MOV  D,A
1175                          da d0 02       JC   02d0
1178                          2a 45 02       LHLD (0245
117b                          01 28 00       LXI  BC, 0028
117e                          09             DAD  BC
117f                          e7             RST 4
1180                          d2 c5 02       JNC  02c5
1183                          eb             XCHG
1184                          22 41 02       SHLD (0241)
1187                          e1             POP  HL
1188                          c3 ad 03       JMP  03ad
118b                          ca a9 03       JZ   03a9
118e                          cd ad 03       CALL 03ad
1191                          01 89 05       LXI  BC, 0589
1194                          c3 c6 06       JMP  06c6
1197                          cd aa 02       CALL 02aa
119a                          03             INX  BC
119b                          c1             POP  BC
119c                          e5             PUSH HL
119d                          e5             PUSH HL
119e                          2a 3b 02       LHLD (023b
11a1                          e3             XTHL
11a2                          16 8c          MVI  D, 8c
11a4                          d5             PUSH DE
11a5                          33             INX  SP
11a6                          c5             PUSH BC
11a7                          cd 61 06       CALL 0661
11aa                          cd fb 06       CALL 06fb
11ad                          e5             PUSH HL
11ae                          2a 3b 02       LHLD (023b
11b1                          e7             RST 4
11b2                          e1             POP  HL
11b3                          23             INX  HL
11b4                          dc 88 03       CC   0388
11b7                          d4 85 03       CNC  0385
11ba                          60             MOV  H,B
11bb                          69             MOV  L,C
11bc                          2b             DCX  HL
11bd                          d8             RC
11be                          1e 0e          MVI  E, e
11c0                          c3 d8 02       JMP  02d8
11c3                          c0             RNZ
11c4                          16 ff          MVI  D, ff
11c6                          cd 7a 02       CALL 027a
11c9                          f9             SPHL
11ca                          fe 8c          CPI  8c
11cc                          1e 04          MVI  E, 4
11ce                          c2 d8 02       JNZ  02d8
11d1                          e1             POP  HL
11d2                          22 3b 02       SHLD (023b)
11d5                          21 89 05       LXI  HL, 0589
11d8                          e3             XTHL
11d9                          01 3a 0e       LXI  BC, 0e3a
11dc                          00             NOOP
11dd                          06 00          MVI  B, 0
11df                          79             MOV  A,C
11e0                          48             MOV  C,B
11e1                          47             MOV  B,A
11e2                          7e             MOV  A,(HL)
11e3                          b7             ORA  A
11e4                          c8             RZ
11e5                          b8             CMP  B
11e6                          c8             RZ
11e7                          23             INX  HL
11e8                          fe 22          CPI  22
11ea                          ca ff 06       JZ   06ff
11ed                          c3 02 07       JMP  0702
11f0                          cd 1a 0b       CALL 0b1a
11f3                          cf             RST 1
11f4                          ac             XRA  H
11f5                          3a 19 02       LDA  (0219)
11f8                          f5             PUSH PSW
11f9                          d5             PUSH DE
11fa                          cd 75 09       CALL 0975
11fd                          e3             XTHL
11fe                          22 37 02       SHLD (0237)
1201                          d1             POP  DE
1202                          f1             POP  PSW
1203                          d5             PUSH DE
1204                          1f             RAR
1205                          cd 6b 09       CALL 096b
1208                          ca 55 07       JZ   0755
120b                          e5             PUSH HL
120c                          2a 4d 02       LHLD (024d
120f                          e5             PUSH HL
1210                          23             INX  HL
1211                          23             INX  HL
1212                          f7             RST 6
1213                          d1             POP  DE
1214                          2a 41 02       LHLD (0241
1217                          e7             RST 4
1218                          d1             POP  DE
1219                          d2 45 07       JNC  0745
121c                          2a 45 02       LHLD (0245
121f                          e7             RST 4
1220                          6b             MOV  L,E
1221                          62             MOV  H,D
1222                          dc 2f 0d       CC   0d2f
1225                          1a             LDAX DE
1226                          f5             PUSH PSW
1227                          af             XRA  A
1228                          12             STAX DE
1229                          cd c5 0e       CALL 0ec5
122c                          f1             POP  PSW
122d                          77             MOV  (HL),A
122e                          eb             XCHG
122f                          e1             POP  HL
1230                          cd 1c 13       CALL 131c
1233                          e1             POP  HL
1234                          c9             RET
1235                          e5             PUSH HL
1236                          cd 19 13       CALL 1319
1239                          d1             POP  DE
123a                          e1             POP  HL
123b                          c9             RET
123c                          cd b9 0f       CALL 0fb9
123f                          7e             MOV  A,(HL)
1240                          47             MOV  B,A
1241                          fe 8c          CPI  8c
1243                          ca 69 07       JZ   0769
1246                          cf             RST 1
1247                          88             ADC  B
1248                          2b             DCX  HL
1249                          4b             MOV  C,E
124a                          0d             DCR  C
124b                          78             MOV  A,B
124c                          ca b3 05       JZ   05b3
124f                          cd 62 06       CALL 0662
1252                          fe 2c          CPI  2c
1254                          c0             RNZ
1255                          c3 6a 07       JMP  076a
1258                          cd 75 09       CALL 0975
125b                          7e             MOV  A,(HL)
125c                          fe 88          CPI  88
125e                          ca 84 07       JZ   0784
1261                          cf             RST 1
1262                          a1             ANA  C
1263                          2b             DCX  HL
1264                          ef             RST 5
1265                          ca fb 06       JZ   06fb
1268                          d7             RST 2
1269                          da c7 06       JC   06c7
126c                          c3 b2 05       JMP  05b2
126f                          2b             DCX  HL
1270                          d7             RST 2
1271                          ca dc 07       JZ   07dc
1274                          c8             RZ
1275                          fe 9d          CPI  9d
1277                          ca 08 08       JZ   0808
127a                          fe 9f          CPI  9f
127c                          ca 08 08       JZ   0808
127f                          e5             PUSH HL
1280                          fe 2c          CPI  2c
1282                          ca f4 07       JZ   07f4
1285                          fe 3b          CPI  3b
1287                          ca 28 08       JZ   0828
128a                          c1             POP  BC
128b                          cd 75 09       CALL 0975
128e                          2b             DCX  HL
128f                          e5             PUSH HL
1290                          3a 19 02       LDA  (0219)
1293                          b7             ORA  A
1294                          c2 d0 07       JNZ  07d0
1297                          cd 70 14       CALL 1470
129a                          cd 4f 0d       CALL 0d4f
129d                          2a 4d 02       LHLD (024d
12a0                          3a 27 00       LDA  (0027)
12a3                          86             ADC  (HL)
12a4                          fe 40          CPI  40
12a6                          d4 dc 07       CNC  07dc
12a9                          cd 96 0d       CALL 0d96
12ac                          3e 20          MVI  A, 20
12ae                          df             RST 3
12af                          af             XRA  A
12b0                          c4 96 0d       CNZ  0d96
12b3                          e1             POP  HL
12b4                          c3 90 07       JMP  0790
12b7                          36 00          MVI  (HL), 0
12b9                          21 ce 01       LXI  HL, 01ce
12bc                          3e 0d          MVI  A, d
12be                          32 27 00       STA  (0027)
12c1                          df             RST 3
12c2                          3e 0a          MVI  A, a
12c4                          df             RST 3
12c5                          3a 26 00       LDA  (0026)
12c8                          3d             DCR  A
12c9                          32 27 00       STA  (0027)
12cc                          c8             RZ
12cd                          f5             PUSH PSW
12ce                          af             XRA  A
12cf                          df             RST 3
12d0                          f1             POP  PSW
12d1                          c3 e8 07       JMP  07e8
12d4                          3a 27 00       LDA  (0027)
12d7                          fe 30          CPI  30
12d9                          d4 dc 07       CNC  07dc
12dc                          d2 28 08       JNC  0828
12df                          d6 0e          SUI  e
12e1                          d2 ff 07       JNC  07ff
12e4                          2f             CMA
12e5                          c3 1f 08       JMP  081f
12e8                          f5             PUSH PSW
12e9                          cd b8 0f       CALL 0fb8
12ec                          cf             RST 1
12ed                          29             DAD  HL
12ee                          2b             DCX  HL
12ef                          f1             POP  PSW
12f0                          fe 9f          CPI  9f
12f2                          e5             PUSH HL
12f3                          7b             MOV  A,E
12f4                          ca 20 08       JZ   0820
12f7                          3a 27 00       LDA  (0027)
12fa                          2f             CMA
12fb                          83             ADC  E
12fc                          d2 28 08       JNC  0828
12ff                          3c             INR  A
1300                          47             MOV  B,A
1301                          3e 20          MVI  A, 20
1303                          df             RST 3
1304                          05             DCR  B
1305                          c2 23 08       JNZ  0823
1308                          e1             POP  HL
1309                          d7             RST 2
130a                          c3 94 07       JMP  0794
130d                          3f             CMC
130e                          70             MOV  (HL),B
130f                          6f             MOV  L,A
1310                          77             MOV  (HL),A
1311                          74             MOV  (HL),H
1312                          6f             MOV  L,A
1313                          72             MOV  (HL),D
1314                          69             MOV  L,C
1315                          74             MOV  (HL),H
1316                          65             MOV  H,L
1317                          20             NOOP
1318                          77             MOV  (HL),A
1319                          77             MOV  (HL),A
131a                          6f             MOV  L,A
131b                          64             MOV  H,H
131c                          a0             ANA  B
131d                          0d             DCR  C
131e                          0a             LDAX BC
131f                          00             NOOP
1320                          3a 36 02       LDA  (0236)
1323                          b7             ORA  A
1324                          c2 ca 02       JNZ  02ca
1327                          c1             POP  BC
1328                          21 2d 08       LXI  HL, 082d
132b                          cd 93 0d       CALL 0d93
132e                          2a 37 02       LHLD (0237
1331                          c9             RET
1332                          fe 22          CPI  22
1334                          3e 00          MVI  A, 0
1336                          32 17 02       STA  (0217)
1339                          c2 66 08       JNZ  0866
133c                          cd 50 0d       CALL 0d50
133f                          cf             RST 1
1340                          3b             DCX  SP
1341                          e5             PUSH HL
1342                          cd 96 0d       CALL 0d96
1345                          e1             POP  HL
1346                          e5             PUSH HL
1347                          cd 02 0d       CALL 0d02
134a                          cd dd 03       CALL 03dd
134d                          23             INX  HL
134e                          7e             MOV  A,(HL)
134f                          b7             ORA  A
1350                          2b             DCX  HL
1351                          c1             POP  BC
1352                          ca f5 05       JZ   05f5
1355                          c5             PUSH BC
1356                          c3 7e 08       JMP  087e
1359                          e5             PUSH HL
135a                          2a 4b 02       LHLD (024b
135d                          f6 af          ORI  af
135f                          32 36 02       STA  (0236)
1362                          e3             XTHL
1363                          01 cf 2c       LXI  BC, 2ccf
1366                          cd 1a 0b       CALL 0b1a
1369                          e3             XTHL
136a                          d5             PUSH DE
136b                          7e             MOV  A,(HL)
136c                          fe 2c          CPI  2c
136e                          ca 9e 08       JZ   089e
1371                          3a 36 02       LDA  (0236)
1374                          b7             ORA  A
1375                          c2 fb 08       JNZ  08fb
1378                          3e 3f          MVI  A, 3f
137a                          df             RST 3
137b                          cd dd 03       CALL 03dd
137e                          3a 19 02       LDA  (0219)
1381                          b7             ORA  A
1382                          ca be 08       JZ   08be
1385                          d7             RST 2
1386                          57             MOV  D,A
1387                          47             MOV  B,A
1388                          fe 22          CPI  22
138a                          ca b2 08       JZ   08b2
138d                          16 3a          MVI  D, 3a
138f                          06 2c          MVI  B, 2c
1391                          2b             DCX  HL
1392                          cd 53 0d       CALL 0d53
1395                          eb             XCHG
1396                          21 c7 08       LXI  HL, 08c7
1399                          e3             XTHL
139a                          d5             PUSH DE
139b                          c3 2b 07       JMP  072b
139e                          d7             RST 2
139f                          cd c6 13       CALL 13c6
13a2                          e3             XTHL
13a3                          cd 19 13       CALL 1319
13a6                          e1             POP  HL
13a7                          2b             DCX  HL
13a8                          d7             RST 2
13a9                          ca d1 08       JZ   08d1
13ac                          fe 2c          CPI  2c
13ae                          c2 40 08       JNZ  0840
13b1                          e3             XTHL
13b2                          2b             DCX  HL
13b3                          d7             RST 2
13b4                          c2 84 08       JNZ  0884
13b7                          d1             POP  DE
13b8                          3a 36 02       LDA  (0236)
13bb                          b7             ORA  A
13bc                          eb             XCHG
13bd                          c2 e0 05       JNZ  05e0
13c0                          b6             ORA  (HL)
13c1                          21 ea 08       LXI  HL, 08ea
13c4                          d5             PUSH DE
13c5                          c4 93 0d       CNZ  0d93
13c8                          e1             POP  HL
13c9                          c9             RET
13ca                          3f             CMC
13cb                          6c             MOV  L,H
13cc                          69             MOV  L,C
13cd                          7b             MOV  A,E
13ce                          6e             MOV  L,(HL)
13cf                          69             MOV  L,C
13d0                          65             MOV  H,L
13d1                          20             NOOP
13d2                          64             MOV  H,H
13d3                          61             MOV  H,C
13d4                          6e             MOV  L,(HL)
13d5                          6e             MOV  L,(HL)
13d6                          79             MOV  A,C
13d7                          e5             PUSH HL
13d8                          0d             DCR  C
13d9                          0a             LDAX BC
13da                          00             NOOP
13db                          cd f9 06       CALL 06f9
13de                          b7             ORA  A
13df                          c2 14 09       JNZ  0914
13e2                          23             INX  HL
13e3                          f7             RST 6
13e4                          79             MOV  A,C
13e5                          b0             ORA  B
13e6                          1e 06          MVI  E, 6
13e8                          ca d8 02       JZ   02d8
13eb                          c1             POP  BC
13ec                          5e             MOV  E,(HL)
13ed                          23             INX  HL
13ee                          56             MOV  D,(HL)
13ef                          eb             XCHG
13f0                          22 33 02       SHLD (0233)
13f3                          eb             XCHG
13f4                          d7             RST 2
13f5                          fe 83          CPI  83
13f7                          c2 fb 08       JNZ  08fb
13fa                          c3 9e 08       JMP  089e
13fd                          11 00 00       LXI  DE, 0000
1400                          c4 1a 0b       CNZ  0b1a
1403                          22 37 02       SHLD (0237)
1406                          cd 7a 02       CALL 027a
1409                          c2 d6 02       JNZ  02d6
140c                          f9             SPHL
140d                          d5             PUSH DE
140e                          7e             MOV  A,(HL)
140f                          23             INX  HL
1410                          f5             PUSH PSW
1411                          d5             PUSH DE
1412                          cd ff 12       CALL 12ff
1415                          e3             XTHL
1416                          e5             PUSH HL
1417                          cd 73 10       CALL 1073
141a                          e1             POP  HL
141b                          cd 19 13       CALL 1319
141e                          e1             POP  HL
141f                          cd 10 13       CALL 1310
1422                          e5             PUSH HL
1423                          cd 3c 13       CALL 133c
1426                          e1             POP  HL
1427                          c1             POP  BC
1428                          90             SUB  B
1429                          cd 10 13       CALL 1310
142c                          ca 58 09       JZ   0958
142f                          eb             XCHG
1430                          22 3b 02       SHLD (023b)
1433                          69             MOV  L,C
1434                          60             MOV  H,B
1435                          c3 85 05       JMP  0585
1438                          f9             SPHL
1439                          2a 37 02       LHLD (0237
143c                          7e             MOV  A,(HL)
143d                          fe 2c          CPI  2c
143f                          c2 89 05       JNZ  0589
1442                          d7             RST 2
1443                          cd 20 09       CALL 0920
1446                          cd 75 09       CALL 0975
1449                          f6 37          ORI  37
144b                          3a 19 02       LDA  (0219)
144e                          8f             ADC  A
144f                          e8             RPE
1450                          1e 18          MVI  E, 18
1452                          c3 d8 02       JMP  02d8
1455                          2b             DCX  HL
1456                          16 00          MVI  D, 0
1458                          d5             PUSH DE
1459                          cd aa 02       CALL 02aa
145c                          01 cd e5       LXI  BC, e5cd
145f                          09             DAD  BC
1460                          22 39 02       SHLD (0239)
1463                          2a 39 02       LHLD (0239
1466                          c1             POP  BC
1467                          78             MOV  A,B
1468                          fe 78          CPI  78
146a                          d4 69 09       CNC  0969
146d                          7e             MOV  A,(HL)
146e                          16 00          MVI  D, 0
1470                          d6 ab          SUI  ab
1472                          da aa 09       JC   09aa
1475                          fe 03          CPI  3
1477                          d2 aa 09       JNC  09aa
147a                          fe 01          CPI  1
147c                          17             RAL
147d                          aa             XRA  D
147e                          ba             CMP  D
147f                          57             MOV  D,A
1480                          da d0 02       JC   02d0
1483                          22 31 02       SHLD (0231)
1486                          d7             RST 2
1487                          c3 90 09       JMP  0990
148a                          7a             MOV  A,D
148b                          b7             ORA  A
148c                          c2 9e 0a       JNZ  0a9e
148f                          7e             MOV  A,(HL)
1490                          22 31 02       SHLD (0231)
1493                          d6 a4          SUI  a4
1495                          d8             RC
1496                          fe 07          CPI  7
1498                          d0             RNC
1499                          5f             MOV  E,A
149a                          3a 19 02       LDA  (0219)
149d                          3d             DCR  A
149e                          b3             ORA  E
149f                          7b             MOV  A,E
14a0                          ca 77 0e       JZ   0e77
14a3                          07             RLC
14a4                          83             ADC  E
14a5                          5f             MOV  E,A
14a6                          21 73 00       LXI  HL, 0073
14a9                          19             DAD  DE
14aa                          78             MOV  A,B
14ab                          56             MOV  D,(HL)
14ac                          ba             CMP  D
14ad                          d0             RNC
14ae                          23             INX  HL
14af                          cd 69 09       CALL 0969
14b2                          c5             PUSH BC
14b3                          01 83 09       LXI  BC, 0983
14b6                          c5             PUSH BC
14b7                          43             MOV  B,E
14b8                          4a             MOV  C,D
14b9                          cd f2 12       CALL 12f2
14bc                          58             MOV  E,B
14bd                          51             MOV  D,C
14be                          f7             RST 6
14bf                          2a 31 02       LHLD (0231
14c2                          c3 78 09       JMP  0978
14c5                          af             XRA  A
14c6                          32 19 02       STA  (0219)
14c9                          d7             RST 2
14ca                          da c6 13       JC   13c6
14cd                          cd 39 06       CALL 0639
14d0                          d2 2f 0a       JNC  0a2f
14d3                          fe a4          CPI  a4
14d5                          ca e5 09       JZ   09e5
14d8                          fe 2e          CPI  2e
14da                          ca c6 13       JZ   13c6
14dd                          fe a5          CPI  a5
14df                          ca 1e 0a       JZ   0a1e
14e2                          fe 22          CPI  22
14e4                          ca 50 0d       JZ   0d50
14e7                          fe a2          CPI  a2
14e9                          ca f9 0a       JZ   0af9
14ec                          fe a0          CPI  a0
14ee                          ca cd 0c       JZ   0ccd
14f1                          d6 ae          SUI  ae
14f3                          d2 40 0a       JNC  0a40
14f6                          cf             RST 1
14f7                          28             NOOP
14f8                          cd 75 09       CALL 0975
14fb                          cf             RST 1
14fc                          29             DAD  HL
14fd                          c9             RET
14fe                          16 7d          MVI  D, 7d
1500                          cd 78 09       CALL 0978
1503                          2a 39 02       LHLD (0239
1506                          e5             PUSH HL
1507                          cd ea 12       CALL 12ea
150a                          cd 69 09       CALL 0969
150d                          e1             POP  HL
150e                          c9             RET
150f                          cd 1a 0b       CALL 0b1a
1512                          e5             PUSH HL
1513                          eb             XCHG
1514                          22 4d 02       SHLD (024d)
1517                          3a 19 02       LDA  (0219)
151a                          b7             ORA  A
151b                          cc ff 12       CZ   12ff
151e                          e1             POP  HL
151f                          c9             RET
1520                          06 00          MVI  B, 0
1522                          07             RLC
1523                          4f             MOV  C,A
1524                          c5             PUSH BC
1525                          d7             RST 2
1526                          79             MOV  A,C
1527                          fe 29          CPI  29
1529                          da 65 0a       JC   0a65
152c                          cf             RST 1
152d                          28             NOOP
152e                          cd 75 09       CALL 0975
1531                          cf             RST 1
1532                          2c             INR  L
1533                          cd 6a 09       CALL 096a
1536                          eb             XCHG
1537                          2a 4d 02       LHLD (024d
153a                          e3             XTHL
153b                          e5             PUSH HL
153c                          eb             XCHG
153d                          cd b9 0f       CALL 0fb9
1540                          eb             XCHG
1541                          e3             XTHL
1542                          c3 6d 0a       JMP  0a6d
1545                          cd 16 0a       CALL 0a16
1548                          e3             XTHL
1549                          11 2a 0a       LXI  DE, 0a2a
154c                          d5             PUSH DE
154d                          01 43 00       LXI  BC, 0043
1550                          09             DAD  BC
1551                          4e             MOV  C,(HL)
1552                          23             INX  HL
1553                          66             MOV  H,(HL)
1554                          69             MOV  L,C
1555                          e9             PCHL
1556                          f6 af          ORI  af
1558                          f5             PUSH PSW
1559                          cd 69 09       CALL 0969
155c                          cd 49 06       CALL 0649
155f                          f1             POP  PSW
1560                          eb             XCHG
1561                          c1             POP  BC
1562                          e3             XTHL
1563                          eb             XCHG
1564                          cd 02 13       CALL 1302
1567                          f5             PUSH PSW
1568                          cd 49 06       CALL 0649
156b                          f1             POP  PSW
156c                          c1             POP  BC
156d                          79             MOV  A,C
156e                          21 9b 0c       LXI  HL, 0c9b
1571                          c2 99 0a       JNZ  0a99
1574                          a3             ANA  E
1575                          4f             MOV  C,A
1576                          78             MOV  A,B
1577                          a2             ANA  D
1578                          e9             PCHL
1579                          b3             ORA  E
157a                          4f             MOV  C,A
157b                          78             MOV  A,B
157c                          b2             ORA  D
157d                          e9             PCHL
157e                          21 b0 0a       LXI  HL, 0ab0
1581                          3a 19 02       LDA  (0219)
1584                          1f             RAR
1585                          7a             MOV  A,D
1586                          17             RAL
1587                          5f             MOV  E,A
1588                          16 64          MVI  D, 64
158a                          78             MOV  A,B
158b                          ba             CMP  D
158c                          d0             RNC
158d                          c3 d2 09       JMP  09d2
1590                          b2             ORA  D
1591                          0a             LDAX BC
1592                          79             MOV  A,C
1593                          b7             ORA  A
1594                          1f             RAR
1595                          c1             POP  BC
1596                          d1             POP  DE
1597                          f5             PUSH PSW
1598                          cd 6b 09       CALL 096b
159b                          21 ef 0a       LXI  HL, 0aef
159e                          e5             PUSH HL
159f                          ca 3c 13       JZ   133c
15a2                          af             XRA  A
15a3                          32 19 02       STA  (0219)
15a6                          d5             PUSH DE
15a7                          cd c1 0e       CALL 0ec1
15aa                          d1             POP  DE
15ab                          f7             RST 6
15ac                          f7             RST 6
15ad                          cd c5 0e       CALL 0ec5
15b0                          cd 10 13       CALL 1310
15b3                          e1             POP  HL
15b4                          e3             XTHL
15b5                          55             MOV  D,L
15b6                          e1             POP  HL
15b7                          7b             MOV  A,E
15b8                          b2             ORA  D
15b9                          c8             RZ
15ba                          7a             MOV  A,D
15bb                          b7             ORA  A
15bc                          2f             CMA
15bd                          c8             RZ
15be                          af             XRA  A
15bf                          bb             CMP  E
15c0                          3c             INR  A
15c1                          d0             RNC
15c2                          15             DCR  D
15c3                          1d             DCR  E
15c4                          0a             LDAX BC
15c5                          be             CMP  (HL)
15c6                          23             INX  HL
15c7                          03             INX  BC
15c8                          ca d7 0a       JZ   0ad7
15cb                          3f             CMC
15cc                          c3 d0 12       JMP  12d0
15cf                          3c             INR  A
15d0                          8f             ADC  A
15d1                          c1             POP  BC
15d2                          a0             ANA  B
15d3                          c6 ff          ADI  ff
15d5                          9f             SBB  A
15d6                          c3 d5 12       JMP  12d5
15d9                          16 5a          MVI  D, 5a
15db                          cd 78 09       CALL 0978
15de                          cd 69 09       CALL 0969
15e1                          cd 49 06       CALL 0649
15e4                          7b             MOV  A,E
15e5                          2f             CMA
15e6                          4f             MOV  C,A
15e7                          7a             MOV  A,D
15e8                          2f             CMA
15e9                          cd 9b 0c       CALL 0c9b
15ec                          c1             POP  BC
15ed                          c3 83 09       JMP  0983
15f0                          2b             DCX  HL
15f1                          d7             RST 2
15f2                          c8             RZ
15f3                          cf             RST 1
15f4                          2c             INR  L
15f5                          01 10 0b       LXI  BC, 0b10
15f8                          c5             PUSH BC
15f9                          f6 af          ORI  af
15fb                          32 18 02       STA  (0218)
15fe                          46             MOV  B,(HL)
15ff                          cd 39 06       CALL 0639
1602                          da d0 02       JC   02d0
1605                          af             XRA  A
1606                          4f             MOV  C,A
1607                          32 19 02       STA  (0219)
160a                          d7             RST 2
160b                          da 34 0b       JC   0b34
160e                          cd 39 06       CALL 0639
1611                          da 3f 0b       JC   0b3f
1614                          4f             MOV  C,A
1615                          d7             RST 2
1616                          da 35 0b       JC   0b35
1619                          cd 39 06       CALL 0639
161c                          d2 35 0b       JNC  0b35
161f                          d6 24          SUI  24
1621                          c2 4c 0b       JNZ  0b4c
1624                          3c             INR  A
1625                          32 19 02       STA  (0219)
1628                          0f             RRC
1629                          81             ADC  C
162a                          4f             MOV  C,A
162b                          d7             RST 2
162c                          3a 35 02       LDA  (0235)
162f                          86             ADC  (HL)
1630                          fe 28          CPI  28
1632                          ca 9e 0b       JZ   0b9e
1635                          af             XRA  A
1636                          32 35 02       STA  (0235)
1639                          e5             PUSH HL
163a                          2a 47 02       LHLD (0247
163d                          eb             XCHG
163e                          2a 45 02       LHLD (0245
1641                          e7             RST 4
1642                          ca 78 0b       JZ   0b78
1645                          79             MOV  A,C
1646                          96             SUB  (HL)
1647                          23             INX  HL
1648                          c2 6d 0b       JNZ  0b6d
164b                          78             MOV  A,B
164c                          96             SUB  (HL)
164d                          23             INX  HL
164e                          ca 9b 0b       JZ   0b9b
1651                          23             INX  HL
1652                          23             INX  HL
1653                          23             INX  HL
1654                          23             INX  HL
1655                          c3 61 0b       JMP  0b61
1658                          c5             PUSH BC
1659                          01 06 00       LXI  BC, 0006
165c                          2a 49 02       LHLD (0249
165f                          e5             PUSH HL
1660                          09             DAD  BC
1661                          c1             POP  BC
1662                          e5             PUSH HL
1663                          cd 9b 02       CALL 029b
1666                          e1             POP  HL
1667                          22 49 02       SHLD (0249)
166a                          60             MOV  H,B
166b                          69             MOV  L,C
166c                          22 47 02       SHLD (0247)
166f                          2b             DCX  HL
1670                          36 00          MVI  (HL), 0
1672                          e7             RST 4
1673                          c2 8f 0b       JNZ  0b8f
1676                          d1             POP  DE
1677                          73             MOV  (HL),E
1678                          23             INX  HL
1679                          72             MOV  (HL),D
167a                          23             INX  HL
167b                          eb             XCHG
167c                          e1             POP  HL
167d                          c9             RET
167e                          e5             PUSH HL
167f                          2a 18 02       LHLD (0218
1682                          e3             XTHL
1683                          16 00          MVI  D, 0
1685                          d5             PUSH DE
1686                          c5             PUSH BC
1687                          cd 41 06       CALL 0641
168a                          c1             POP  BC
168b                          f1             POP  PSW
168c                          eb             XCHG
168d                          e3             XTHL
168e                          e5             PUSH HL
168f                          eb             XCHG
1690                          3c             INR  A
1691                          57             MOV  D,A
1692                          7e             MOV  A,(HL)
1693                          fe 2c          CPI  2c
1695                          ca a5 0b       JZ   0ba5
1698                          cf             RST 1
1699                          29             DAD  HL
169a                          22 39 02       SHLD (0239)
169d                          e1             POP  HL
169e                          22 18 02       SHLD (0218)
16a1                          d5             PUSH DE
16a2                          2a 47 02       LHLD (0247
16a5                          3e 19          MVI  A, 19
16a7                          eb             XCHG
16a8                          2a 49 02       LHLD (0249
16ab                          eb             XCHG
16ac                          e7             RST 4
16ad                          ca f3 0b       JZ   0bf3
16b0                          7e             MOV  A,(HL)
16b1                          b9             CMP  C
16b2                          23             INX  HL
16b3                          c2 d8 0b       JNZ  0bd8
16b6                          7e             MOV  A,(HL)
16b7                          b8             CMP  B
16b8                          23             INX  HL
16b9                          5e             MOV  E,(HL)
16ba                          23             INX  HL
16bb                          56             MOV  D,(HL)
16bc                          23             INX  HL
16bd                          c2 c6 0b       JNZ  0bc6
16c0                          3a 18 02       LDA  (0218)
16c3                          b7             ORA  A
16c4                          1e 12          MVI  E, 12
16c6                          c2 d8 02       JNZ  02d8
16c9                          f1             POP  PSW
16ca                          be             CMP  (HL)
16cb                          ca 52 0c       JZ   0c52
16ce                          1e 10          MVI  E, 10
16d0                          c3 d8 02       JMP  02d8
16d3                          11 04 00       LXI  DE, 0004
16d6                          71             MOV  (HL),C
16d7                          23             INX  HL
16d8                          70             MOV  (HL),B
16d9                          23             INX  HL
16da                          f1             POP  PSW
16db                          32 01 0c       STA  (0c01)
16de                          cd aa 02       CALL 02aa
16e1                          e9             PCHL
16e2                          22 31 02       SHLD (0231)
16e5                          23             INX  HL
16e6                          23             INX  HL
16e7                          41             MOV  B,C
16e8                          70             MOV  (HL),B
16e9                          23             INX  HL
16ea                          3a 18 02       LDA  (0218)
16ed                          b7             ORA  A
16ee                          78             MOV  A,B
16ef                          01 0b 00       LXI  BC, 000b
16f2                          ca 17 0c       JZ   0c17
16f5                          c1             POP  BC
16f6                          03             INX  BC
16f7                          71             MOV  (HL),C
16f8                          23             INX  HL
16f9                          70             MOV  (HL),B
16fa                          23             INX  HL
16fb                          f5             PUSH PSW
16fc                          e5             PUSH HL
16fd                          cd ab 13       CALL 13ab
1700                          eb             XCHG
1701                          e1             POP  HL
1702                          c1             POP  BC
1703                          05             DCR  B
1704                          c2 0a 0c       JNZ  0c0a
1707                          42             MOV  B,D
1708                          4b             MOV  C,E
1709                          eb             XCHG
170a                          19             DAD  DE
170b                          da ee 0b       JC   0bee
170e                          cd bb 02       CALL 02bb
1711                          22 49 02       SHLD (0249)
1714                          2b             DCX  HL
1715                          36 00          MVI  (HL), 0
1717                          e7             RST 4
1718                          c2 34 0c       JNZ  0c34
171b                          03             INX  BC
171c                          67             MOV  H,A
171d                          3a 18 02       LDA  (0218)
1720                          b7             ORA  A
1721                          3a 01 0c       LDA  (0c01)
1724                          6f             MOV  L,A
1725                          29             DAD  HL
1726                          09             DAD  BC
1727                          eb             XCHG
1728                          2a 31 02       LHLD (0231
172b                          73             MOV  (HL),E
172c                          23             INX  HL
172d                          72             MOV  (HL),D
172e                          23             INX  HL
172f                          c2 74 0c       JNZ  0c74
1732                          23             INX  HL
1733                          01 00 00       LXI  BC, 0000
1736                          16 e1          MVI  D, e1
1738                          5e             MOV  E,(HL)
1739                          23             INX  HL
173a                          56             MOV  D,(HL)
173b                          23             INX  HL
173c                          e3             XTHL
173d                          f5             PUSH PSW
173e                          e7             RST 4
173f                          d2 ee 0b       JNC  0bee
1742                          e5             PUSH HL
1743                          cd ab 13       CALL 13ab
1746                          d1             POP  DE
1747                          19             DAD  DE
1748                          f1             POP  PSW
1749                          3d             DCR  A
174a                          44             MOV  B,H
174b                          4d             MOV  C,L
174c                          c2 57 0c       JNZ  0c57
174f                          29             DAD  HL
1750                          29             DAD  HL
1751                          c1             POP  BC
1752                          09             DAD  BC
1753                          eb             XCHG
1754                          2a 39 02       LHLD (0239
1757                          2b             DCX  HL
1758                          d7             RST 2
1759                          c9             RET
175a                          2a 49 02       LHLD (0249
175d                          eb             XCHG
175e                          21 00 00       LXI  HL, 0000
1761                          39             DAD  SP
1762                          3a 19 02       LDA  (0219)
1765                          b7             ORA  A
1766                          ca 96 0c       JZ   0c96
1769                          cd c1 0e       CALL 0ec1
176c                          cd d2 0d       CALL 0dd2
176f                          2a 41 02       LHLD (0241
1772                          eb             XCHG
1773                          2a 2f 02       LHLD (022f
1776                          7d             MOV  A,L
1777                          93             SUB  E
1778                          4f             MOV  C,A
1779                          7c             MOV  A,H
177a                          9a             SBB  D
177b                          41             MOV  B,C
177c                          50             MOV  D,B
177d                          1e 00          MVI  E, 0
177f                          21 19 02       LXI  HL, 0219
1782                          73             MOV  (HL),E
1783                          06 90          MVI  B, 90
1785                          c3 da 12       JMP  12da
1788                          3a 27 00       LDA  (0027)
178b                          47             MOV  B,A
178c                          af             XRA  A
178d                          c3 9c 0c       JMP  0c9c
1790                          cd 10 0d       CALL 0d10
1793                          01 f9 06       LXI  BC, 06f9
1796                          c5             PUSH BC
1797                          d5             PUSH DE
1798                          cd 02 0d       CALL 0d02
179b                          cf             RST 1
179c                          28             NOOP
179d                          cd 1a 0b       CALL 0b1a
17a0                          cd 69 09       CALL 0969
17a3                          cf             RST 1
17a4                          29             DAD  HL
17a5                          cf             RST 1
17a6                          ac             XRA  H
17a7                          44             MOV  B,H
17a8                          4d             MOV  C,L
17a9                          e3             XTHL
17aa                          c3 f9 0c       JMP  0cf9
17ad                          cd 10 0d       CALL 0d10
17b0                          d5             PUSH DE
17b1                          cd 16 0a       CALL 0a16
17b4                          cd 69 09       CALL 0969
17b7                          e3             XTHL
17b8                          f7             RST 6
17b9                          d1             POP  DE
17ba                          f7             RST 6
17bb                          e1             POP  HL
17bc                          f7             RST 6
17bd                          f7             RST 6
17be                          2b             DCX  HL
17bf                          2b             DCX  HL
17c0                          2b             DCX  HL
17c1                          2b             DCX  HL
17c2                          e5             PUSH HL
17c3                          e7             RST 4
17c4                          d5             PUSH DE
17c5                          1e 22          MVI  E, 22
17c7                          ca d8 02       JZ   02d8
17ca                          cd 19 13       CALL 1319
17cd                          e1             POP  HL
17ce                          cd 66 09       CALL 0966
17d1                          2b             DCX  HL
17d2                          d7             RST 2
17d3                          c2 d0 02       JNZ  02d0
17d6                          e1             POP  HL
17d7                          d1             POP  DE
17d8                          c1             POP  BC
17d9                          71             MOV  (HL),C
17da                          23             INX  HL
17db                          70             MOV  (HL),B
17dc                          23             INX  HL
17dd                          73             MOV  (HL),E
17de                          23             INX  HL
17df                          72             MOV  (HL),D
17e0                          e1             POP  HL
17e1                          c9             RET
17e2                          e5             PUSH HL
17e3                          2a 3b 02       LHLD (023b
17e6                          23             INX  HL
17e7                          7c             MOV  A,H
17e8                          b5             ORA  L
17e9                          e1             POP  HL
17ea                          c0             RNZ
17eb                          1e 16          MVI  E, 16
17ed                          c3 d8 02       JMP  02d8
17f0                          cf             RST 1
17f1                          a0             ANA  B
17f2                          3e 80          MVI  A, 80
17f4                          32 35 02       STA  (0235)
17f7                          b6             ORA  (HL)
17f8                          47             MOV  B,A
17f9                          cd 1f 0b       CALL 0b1f
17fc                          c3 69 09       JMP  0969
17ff                          cd 69 09       CALL 0969
1802                          cd 70 14       CALL 1470
1805                          cd 4f 0d       CALL 0d4f
1808                          cd c1 0e       CALL 0ec1
180b                          01 10 0f       LXI  BC, 0f10
180e                          c5             PUSH BC
180f                          7e             MOV  A,(HL)
1810                          23             INX  HL
1811                          23             INX  HL
1812                          e5             PUSH HL
1813                          cd aa 0d       CALL 0daa
1816                          e1             POP  HL
1817                          f7             RST 6
1818                          c1             POP  BC
1819                          cd 46 0d       CALL 0d46
181c                          e5             PUSH HL
181d                          6f             MOV  L,A
181e                          cd b4 0e       CALL 0eb4
1821                          d1             POP  DE
1822                          c9             RET
1823                          cd aa 0d       CALL 0daa
1826                          21 2b 02       LXI  HL, 022b
1829                          e5             PUSH HL
182a                          77             MOV  (HL),A
182b                          23             INX  HL
182c                          c3 fc 0c       JMP  0cfc
182f                          2b             DCX  HL
1830                          06 22          MVI  B, 22
1832                          50             MOV  D,B
1833                          e5             PUSH HL
1834                          0e ff          MVI  C, ff
1836                          23             INX  HL
1837                          7e             MOV  A,(HL)
1838                          0c             INR  C
1839                          b7             ORA  A
183a                          ca 65 0d       JZ   0d65
183d                          ba             CMP  D
183e                          ca 65 0d       JZ   0d65
1841                          b8             CMP  B
1842                          c2 56 0d       JNZ  0d56
1845                          fe 22          CPI  22
1847                          cc cb 05       CZ   05cb
184a                          e3             XTHL
184b                          23             INX  HL
184c                          eb             XCHG
184d                          79             MOV  A,C
184e                          cd 46 0d       CALL 0d46
1851                          e7             RST 4
1852                          d4 2f 0d       CNC  0d2f
1855                          11 2b 02       LXI  DE, 022b
1858                          2a 1d 02       LHLD (021d
185b                          22 4d 02       SHLD (024d)
185e                          3e 01          MVI  A, 1
1860                          32 19 02       STA  (0219)
1863                          cd 1c 13       CALL 131c
1866                          e7             RST 4
1867                          1e 1e          MVI  E, 1e
1869                          ca d8 02       JZ   02d8
186c                          22 1d 02       SHLD (021d)
186f                          e1             POP  HL
1870                          7e             MOV  A,(HL)
1871                          c9             RET
1872                          23             INX  HL
1873                          cd 4f 0d       CALL 0d4f
1876                          cd c1 0e       CALL 0ec1
1879                          cd 10 13       CALL 1310
187c                          1c             INR  E
187d                          1d             DCR  E
187e                          c8             RZ
187f                          0a             LDAX BC
1880                          df             RST 3
1881                          fe 0d          CPI  d
1883                          cc e5 07       CZ   07e5
1886                          03             INX  BC
1887                          c3 9d 0d       JMP  0d9d
188a                          b7             ORA  A
188b                          0e f1          MVI  C, f1
188d                          f5             PUSH PSW
188e                          2a 41 02       LHLD (0241
1891                          eb             XCHG
1892                          2a 2f 02       LHLD (022f
1895                          2f             CMA
1896                          4f             MOV  C,A
1897                          06 ff          MVI  B, ff
1899                          09             DAD  BC
189a                          23             INX  HL
189b                          e7             RST 4
189c                          da c6 0d       JC   0dc6
189f                          22 2f 02       SHLD (022f)
18a2                          23             INX  HL
18a3                          eb             XCHG
18a4                          f1             POP  PSW
18a5                          c9             RET
18a6                          f1             POP  PSW
18a7                          1e 1a          MVI  E, 1a
18a9                          ca d8 02       JZ   02d8
18ac                          bf             CMP  A
18ad                          f5             PUSH PSW
18ae                          01 ac 0d       LXI  BC, 0dac
18b1                          c5             PUSH BC
18b2                          2a 1b 02       LHLD (021b
18b5                          22 2f 02       SHLD (022f)
18b8                          21 00 00       LXI  HL, 0000
18bb                          e5             PUSH HL
18bc                          2a 41 02       LHLD (0241
18bf                          e5             PUSH HL
18c0                          21 1f 02       LXI  HL, 021f
18c3                          eb             XCHG
18c4                          2a 1d 02       LHLD (021d
18c7                          eb             XCHG
18c8                          e7             RST 4
18c9                          01 e3 0d       LXI  BC, 0de3
18cc                          c2 2f 0e       JNZ  0e2f
18cf                          2a 45 02       LHLD (0245
18d2                          eb             XCHG
18d3                          2a 47 02       LHLD (0247
18d6                          eb             XCHG
18d7                          e7             RST 4
18d8                          ca 06 0e       JZ   0e06
18db                          7e             MOV  A,(HL)
18dc                          23             INX  HL
18dd                          23             INX  HL
18de                          b7             ORA  A
18df                          cd 32 0e       CALL 0e32
18e2                          c3 f2 0d       JMP  0df2
18e5                          c1             POP  BC
18e6                          eb             XCHG
18e7                          2a 49 02       LHLD (0249
18ea                          eb             XCHG
18eb                          e7             RST 4
18ec                          ca 52 0e       JZ   0e52
18ef                          cd 10 13       CALL 1310
18f2                          7b             MOV  A,E
18f3                          e5             PUSH HL
18f4                          09             DAD  BC
18f5                          b7             ORA  A
18f6                          f2 05 0e       JP   0e05
18f9                          22 31 02       SHLD (0231)
18fc                          e1             POP  HL
18fd                          4e             MOV  C,(HL)
18fe                          06 00          MVI  B, 0
1900                          09             DAD  BC
1901                          09             DAD  BC
1902                          23             INX  HL
1903                          eb             XCHG
1904                          2a 31 02       LHLD (0231
1907                          eb             XCHG
1908                          e7             RST 4
1909                          ca 06 0e       JZ   0e06
190c                          01 23 0e       LXI  BC, 0e23
190f                          c5             PUSH BC
1910                          f6 80          ORI  80
1912                          f7             RST 6
1913                          f7             RST 6
1914                          d1             POP  DE
1915                          c1             POP  BC
1916                          f0             RP
1917                          79             MOV  A,C
1918                          b7             ORA  A
1919                          c8             RZ
191a                          44             MOV  B,H
191b                          4d             MOV  C,L
191c                          2a 2f 02       LHLD (022f
191f                          e7             RST 4
1920                          60             MOV  H,B
1921                          69             MOV  L,C
1922                          d8             RC
1923                          e1             POP  HL
1924                          e3             XTHL
1925                          e7             RST 4
1926                          e3             XTHL
1927                          e5             PUSH HL
1928                          60             MOV  H,B
1929                          69             MOV  L,C
192a                          d0             RNC
192b                          c1             POP  BC
192c                          f1             POP  PSW
192d                          f1             POP  PSW
192e                          e5             PUSH HL
192f                          d5             PUSH DE
1930                          c5             PUSH BC
1931                          c9             RET
1932                          d1             POP  DE
1933                          e1             POP  HL
1934                          7d             MOV  A,L
1935                          b4             ORA  H
1936                          c8             RZ
1937                          2b             DCX  HL
1938                          46             MOV  B,(HL)
1939                          2b             DCX  HL
193a                          4e             MOV  C,(HL)
193b                          e5             PUSH HL
193c                          2b             DCX  HL
193d                          2b             DCX  HL
193e                          6e             MOV  L,(HL)
193f                          26 00          MVI  H, 0
1941                          09             DAD  BC
1942                          50             MOV  D,B
1943                          59             MOV  E,C
1944                          2b             DCX  HL
1945                          44             MOV  B,H
1946                          4d             MOV  C,L
1947                          2a 2f 02       LHLD (022f
194a                          cd 9e 02       CALL 029e
194d                          e1             POP  HL
194e                          71             MOV  (HL),C
194f                          23             INX  HL
1950                          70             MOV  (HL),B
1951                          69             MOV  L,C
1952                          60             MOV  H,B
1953                          2b             DCX  HL
1954                          c3 d5 0d       JMP  0dd5
1957                          c5             PUSH BC
1958                          e5             PUSH HL
1959                          2a 4d 02       LHLD (024d
195c                          e3             XTHL
195d                          cd e5 09       CALL 09e5
1960                          e3             XTHL
1961                          cd 6a 09       CALL 096a
1964                          7e             MOV  A,(HL)
1965                          e5             PUSH HL
1966                          2a 4d 02       LHLD (024d
1969                          e5             PUSH HL
196a                          86             ADC  (HL)
196b                          1e 1c          MVI  E, 1c
196d                          da d8 02       JC   02d8
1970                          cd 43 0d       CALL 0d43
1973                          d1             POP  DE
1974                          cd c5 0e       CALL 0ec5
1977                          e3             XTHL
1978                          cd c4 0e       CALL 0ec4
197b                          e5             PUSH HL
197c                          2a 2d 02       LHLD (022d
197f                          eb             XCHG
1980                          cd ae 0e       CALL 0eae
1983                          cd ae 0e       CALL 0eae
1986                          21 86 09       LXI  HL, 0986
1989                          e3             XTHL
198a                          e5             PUSH HL
198b                          c3 75 0d       JMP  0d75
198e                          e1             POP  HL
198f                          e3             XTHL
1990                          f7             RST 6
1991                          f7             RST 6
1992                          c1             POP  BC
1993                          e1             POP  HL
1994                          2c             INR  L
1995                          2d             DCR  L
1996                          c8             RZ
1997                          0a             LDAX BC
1998                          12             STAX DE
1999                          03             INX  BC
199a                          13             INX  DE
199b                          c3 b5 0e       JMP  0eb5
199e                          cd 6a 09       CALL 096a
19a1                          2a 4d 02       LHLD (024d
19a4                          eb             XCHG
19a5                          2a 1d 02       LHLD (021d
19a8                          2b             DCX  HL
19a9                          46             MOV  B,(HL)
19aa                          2b             DCX  HL
19ab                          4e             MOV  C,(HL)
19ac                          2b             DCX  HL
19ad                          2b             DCX  HL
19ae                          e7             RST 4
19af                          eb             XCHG
19b0                          c0             RNZ
19b1                          22 1d 02       SHLD (021d)
19b4                          d5             PUSH DE
19b5                          50             MOV  D,B
19b6                          59             MOV  E,C
19b7                          1b             DCX  DE
19b8                          4e             MOV  C,(HL)
19b9                          2a 2f 02       LHLD (022f
19bc                          e7             RST 4
19bd                          c2 e5 0e       JNZ  0ee5
19c0                          47             MOV  B,A
19c1                          09             DAD  BC
19c2                          22 2f 02       SHLD (022f)
19c5                          e1             POP  HL
19c6                          c9             RET
19c7                          01 ab 0c       LXI  BC, 0cab
19ca                          c5             PUSH BC
19cb                          cd be 0e       CALL 0ebe
19ce                          af             XRA  A
19cf                          57             MOV  D,A
19d0                          32 19 02       STA  (0219)
19d3                          7e             MOV  A,(HL)
19d4                          b7             ORA  A
19d5                          c9             RET
19d6                          cd eb 0e       CALL 0eeb
19d9                          ca 5c 06       JZ   065c
19dc                          23             INX  HL
19dd                          23             INX  HL
19de                          f7             RST 6
19df                          e1             POP  HL
19e0                          7e             MOV  A,(HL)
19e1                          c3 ab 0c       JMP  0cab
19e4                          3e 01          MVI  A, 1
19e6                          cd 43 0d       CALL 0d43
19e9                          cd bc 0f       CALL 0fbc
19ec                          2a 2d 02       LHLD (022d
19ef                          73             MOV  (HL),E
19f0                          c1             POP  BC
19f1                          c3 75 0d       JMP  0d75
19f4                          cd 9f 0f       CALL 0f9f
19f7                          af             XRA  A
19f8                          e3             XTHL
19f9                          4f             MOV  C,A
19fa                          e5             PUSH HL
19fb                          7e             MOV  A,(HL)
19fc                          b8             CMP  B
19fd                          da 22 0f       JC   0f22
1a00                          78             MOV  A,B
1a01                          11 0e 00       LXI  DE, 000e
1a04                          c5             PUSH BC
1a05                          cd aa 0d       CALL 0daa
1a08                          c1             POP  BC
1a09                          e1             POP  HL
1a0a                          e5             PUSH HL
1a0b                          23             INX  HL
1a0c                          23             INX  HL
1a0d                          46             MOV  B,(HL)
1a0e                          23             INX  HL
1a0f                          66             MOV  H,(HL)
1a10                          68             MOV  L,B
1a11                          06 00          MVI  B, 0
1a13                          09             DAD  BC
1a14                          44             MOV  B,H
1a15                          4d             MOV  C,L
1a16                          cd 46 0d       CALL 0d46
1a19                          6f             MOV  L,A
1a1a                          cd b4 0e       CALL 0eb4
1a1d                          d1             POP  DE
1a1e                          cd c5 0e       CALL 0ec5
1a21                          c3 75 0d       JMP  0d75
1a24                          cd 9f 0f       CALL 0f9f
1a27                          d1             POP  DE
1a28                          d5             PUSH DE
1a29                          1a             LDAX DE
1a2a                          90             SUB  B
1a2b                          c3 18 0f       JMP  0f18
1a2e                          eb             XCHG
1a2f                          7e             MOV  A,(HL)
1a30                          cd a2 0f       CALL 0fa2
1a33                          c5             PUSH BC
1a34                          1e ff          MVI  E, ff
1a36                          fe 29          CPI  29
1a38                          ca 60 0f       JZ   0f60
1a3b                          cf             RST 1
1a3c                          2c             INR  L
1a3d                          cd b9 0f       CALL 0fb9
1a40                          cf             RST 1
1a41                          29             DAD  HL
1a42                          f1             POP  PSW
1a43                          e3             XTHL
1a44                          01 1a 0f       LXI  BC, 0f1a
1a47                          c5             PUSH BC
1a48                          3d             DCR  A
1a49                          be             CMP  (HL)
1a4a                          06 00          MVI  B, 0
1a4c                          d0             RNC
1a4d                          4f             MOV  C,A
1a4e                          7e             MOV  A,(HL)
1a4f                          91             SUB  C
1a50                          bb             CMP  E
1a51                          47             MOV  B,A
1a52                          d8             RC
1a53                          43             MOV  B,E
1a54                          c9             RET
1a55                          cd 37 c3       CALL c337
1a58                          c3 ab 0c       JMP  0cab
1a5b                          db 00          IN   0
1a5d                          c3 ab 0c       JMP  0cab
1a60                          c9             RET
1a61                          ac             XRA  H
1a62                          0f             RRC
1a63                          d3 00          OUT  0
1a65                          c9             RET
1a66                          cd ac 0f       CALL 0fac
1a69                          f5             PUSH PSW
1a6a                          1e 00          MVI  E, 0
1a6c                          2b             DCX  HL
1a6d                          d7             RST 2
1a6e                          ca 96 0f       JZ   0f96
1a71                          cf             RST 1
1a72                          2c             INR  L
1a73                          cd b9 0f       CALL 0fb9
1a76                          c1             POP  BC
1a77                          db 00          IN   0
1a79                          ab             XRA  E
1a7a                          a0             ANA  B
1a7b                          ca 97 0f       JZ   0f97
1a7e                          c9             RET
1a7f                          eb             XCHG
1a80                          cf             RST 1
1a81                          29             DAD  HL
1a82                          c1             POP  BC
1a83                          d1             POP  DE
1a84                          c5             PUSH BC
1a85                          43             MOV  B,E
1a86                          04             INR  B
1a87                          05             DCR  B
1a88                          ca 5c 06       JZ   065c
1a8b                          c9             RET
1a8c                          cd b9 0f       CALL 0fb9
1a8f                          32 98 0f       STA  (0f98)
1a92                          32 84 0f       STA  (0f84)
1a95                          cf             RST 1
1a96                          2c             INR  L
1a97                          06 d7          MVI  B, d7
1a99                          cd 66 09       CALL 0966
1a9c                          cd 45 06       CALL 0645
1a9f                          7a             MOV  A,D
1aa0                          b7             ORA  A
1aa1                          c2 5c 06       JNZ  065c
1aa4                          2b             DCX  HL
1aa5                          d7             RST 2
1aa6                          7b             MOV  A,E
1aa7                          c9             RET
1aa8                          cd eb 0e       CALL 0eeb
1aab                          ca e8 10       JZ   10e8
1aae                          5f             MOV  E,A
1aaf                          23             INX  HL
1ab0                          23             INX  HL
1ab1                          f7             RST 6
1ab2                          60             MOV  H,B
1ab3                          69             MOV  L,C
1ab4                          19             DAD  DE
1ab5                          46             MOV  B,(HL)
1ab6                          72             MOV  (HL),D
1ab7                          e3             XTHL
1ab8                          c5             PUSH BC
1ab9                          7e             MOV  A,(HL)
1aba                          cd c6 13       CALL 13c6
1abd                          c1             POP  BC
1abe                          e1             POP  HL
1abf                          70             MOV  (HL),B
1ac0                          c9             RET
1ac1                          cd 77 c3       CALL c377
1ac4                          00             NOOP
1ac5                          00             NOOP
1ac6                          00             NOOP
1ac7                          00             NOOP
1ac8                          00             NOOP
1ac9                          00             NOOP
1aca                          c9             RET
1acb                          cd ee 0f       CALL 0fee
1ace                          f5             PUSH PSW
1acf                          f1             POP  PSW
1ad0                          c5             PUSH BC
1ad1                          4f             MOV  C,A
1ad2                          f5             PUSH PSW
1ad3                          cd d0 c3       CALL c3d0
1ad6                          f1             POP  PSW
1ad7                          c1             POP  BC
1ad8                          00             NOOP
1ad9                          c9             RET
1ada                          e5             PUSH HL
1adb                          3e d3          MVI  A, d3
1add                          cd ee 0f       CALL 0fee
1ae0                          cd eb 0f       CALL 0feb
1ae3                          7e             MOV  A,(HL)
1ae4                          cd ee 0f       CALL 0fee
1ae7                          2a 43 02       LHLD (0243
1aea                          eb             XCHG
1aeb                          2a 45 02       LHLD (0245
1aee                          1a             LDAX DE
1aef                          13             INX  DE
1af0                          cd ee 0f       CALL 0fee
1af3                          e7             RST 4
1af4                          c2 0e 10       JNZ  100e
1af7                          cd eb 0f       CALL 0feb
1afa                          e1             POP  HL
1afb                          d7             RST 2
1afc                          c9             RET
1afd                          32 4d 02       STA  (024d)
1b00                          cd 9e 03       CALL 039e
1b03                          06 03          MVI  B, 3
1b05                          cd e1 0f       CALL 0fe1
1b08                          fe d3          CPI  d3
1b0a                          c2 23 10       JNZ  1023
1b0d                          05             DCR  B
1b0e                          c2 25 10       JNZ  1025
1b11                          21 4d 02       LXI  HL, 024d
1b14                          cd e1 0f       CALL 0fe1
1b17                          be             CMP  (HL)
1b18                          c2 23 10       JNZ  1023
1b1b                          2a 43 02       LHLD (0243
1b1e                          06 04          MVI  B, 4
1b20                          cd e1 0f       CALL 0fe1
1b23                          77             MOV  (HL),A
1b24                          cd bb 02       CALL 02bb
1b27                          7e             MOV  A,(HL)
1b28                          b7             ORA  A
1b29                          23             INX  HL
1b2a                          c2 3e 10       JNZ  103e
1b2d                          05             DCR  B
1b2e                          c2 40 10       JNZ  1040
1b31                          22 45 02       SHLD (0245)
1b34                          21 6b 02       LXI  HL, 026b
1b37                          cd 93 0d       CALL 0d93
1b3a                          c3 68 03       JMP  0368
1b3d                          cd 45 06       CALL 0645
1b40                          1a             LDAX DE
1b41                          c3 ab 0c       JMP  0cab
1b44                          cd 42 06       CALL 0642
1b47                          d5             PUSH DE
1b48                          cf             RST 1
1b49                          2c             INR  L
1b4a                          cd b9 0f       CALL 0fb9
1b4d                          d1             POP  DE
1b4e                          12             STAX DE
1b4f                          c9             RET
1b50                          21 39 15       LXI  HL, 1539
1b53                          cd 10 13       CALL 1310
1b56                          c3 82 10       JMP  1082
1b59                          cd 10 13       CALL 1310
1b5c                          21 c1 d1       LXI  HL, d1c1
1b5f                          cd ea 12       CALL 12ea
1b62                          78             MOV  A,B
1b63                          b7             ORA  A
1b64                          c8             RZ
1b65                          3a 50 02       LDA  (0250)
1b68                          b7             ORA  A
1b69                          ca 02 13       JZ   1302
1b6c                          90             SUB  B
1b6d                          d2 9c 10       JNC  109c
1b70                          2f             CMA
1b71                          3c             INR  A
1b72                          eb             XCHG
1b73                          cd f2 12       CALL 12f2
1b76                          eb             XCHG
1b77                          cd 02 13       CALL 1302
1b7a                          c1             POP  BC
1b7b                          d1             POP  DE
1b7c                          fe 19          CPI  19
1b7e                          d0             RNC
1b7f                          f5             PUSH PSW
1b80                          cd 27 13       CALL 1327
1b83                          67             MOV  H,A
1b84                          f1             POP  PSW
1b85                          cd 49 11       CALL 1149
1b88                          b4             ORA  H
1b89                          21 4d 02       LXI  HL, 024d
1b8c                          f2 c2 10       JP   10c2
1b8f                          cd 29 11       CALL 1129
1b92                          d2 08 11       JNC  1108
1b95                          23             INX  HL
1b96                          34             INR  (HL)
1b97                          ca 24 11       JZ   1124
1b9a                          2e 01          MVI  L, 1
1b9c                          cd 5f 11       CALL 115f
1b9f                          c3 08 11       JMP  1108
1ba2                          af             XRA  A
1ba3                          90             SUB  B
1ba4                          47             MOV  B,A
1ba5                          7e             MOV  A,(HL)
1ba6                          9b             SBB  E
1ba7                          5f             MOV  E,A
1ba8                          23             INX  HL
1ba9                          7e             MOV  A,(HL)
1baa                          9a             SBB  D
1bab                          57             MOV  D,A
1bac                          23             INX  HL
1bad                          7e             MOV  A,(HL)
1bae                          99             SBB  C
1baf                          4f             MOV  C,A
1bb0                          dc 35 11       CC   1135
1bb3                          68             MOV  L,B
1bb4                          63             MOV  H,E
1bb5                          af             XRA  A
1bb6                          47             MOV  B,A
1bb7                          79             MOV  A,C
1bb8                          b7             ORA  A
1bb9                          c2 f5 10       JNZ  10f5
1bbc                          4a             MOV  C,D
1bbd                          54             MOV  D,H
1bbe                          65             MOV  H,L
1bbf                          6f             MOV  L,A
1bc0                          78             MOV  A,B
1bc1                          d6 08          SUI  8
1bc3                          fe e0          CPI  e0
1bc5                          c2 d6 10       JNZ  10d6
1bc8                          af             XRA  A
1bc9                          32 50 02       STA  (0250)
1bcc                          c9             RET
1bcd                          05             DCR  B
1bce                          29             DAD  HL
1bcf                          7a             MOV  A,D
1bd0                          17             RAL
1bd1                          57             MOV  D,A
1bd2                          79             MOV  A,C
1bd3                          8f             ADC  A
1bd4                          4f             MOV  C,A
1bd5                          f2 ed 10       JP   10ed
1bd8                          78             MOV  A,B
1bd9                          5c             MOV  E,H
1bda                          45             MOV  B,L
1bdb                          b7             ORA  A
1bdc                          ca 08 11       JZ   1108
1bdf                          21 50 02       LXI  HL, 0250
1be2                          86             ADC  (HL)
1be3                          77             MOV  (HL),A
1be4                          d2 e8 10       JNC  10e8
1be7                          c8             RZ
1be8                          78             MOV  A,B
1be9                          21 50 02       LXI  HL, 0250
1bec                          b7             ORA  A
1bed                          fc 1a 11       CM   111a
1bf0                          46             MOV  B,(HL)
1bf1                          23             INX  HL
1bf2                          7e             MOV  A,(HL)
1bf3                          e6             ANI  80
1bf4                          80             ADC  B
1bf5                          a9             XRA  C
1bf6                          4f             MOV  C,A
1bf7                          c3 02 13       JMP  1302
1bfa                          1c             INR  E
1bfb                          c0             RNZ
1bfc                          14             INR  D
1bfd                          c0             RNZ
1bfe                          0c             INR  C
1bff                          c0             RNZ
1c00                          0e 80          MVI  C, 80
1c02                          34             INR  (HL)
1c03                          c0             RNZ
1c04                          1e 0a          MVI  E, a
1c06                          c3 d8 02       JMP  02d8
1c09                          7e             MOV  A,(HL)
1c0a                          83             ADC  E
1c0b                          5f             MOV  E,A
1c0c                          23             INX  HL
1c0d                          7e             MOV  A,(HL)
1c0e                          8a             ADC  D
1c0f                          57             MOV  D,A
1c10                          23             INX  HL
1c11                          7e             MOV  A,(HL)
1c12                          89             ADC  C
1c13                          4f             MOV  C,A
1c14                          c9             RET
1c15                          21 51 02       LXI  HL, 0251
1c18                          7e             MOV  A,(HL)
1c19                          2f             CMA
1c1a                          77             MOV  (HL),A
1c1b                          af             XRA  A
1c1c                          6f             MOV  L,A
1c1d                          90             SUB  B
1c1e                          47             MOV  B,A
1c1f                          7d             MOV  A,L
1c20                          9b             SBB  E
1c21                          5f             MOV  E,A
1c22                          7d             MOV  A,L
1c23                          9a             SBB  D
1c24                          57             MOV  D,A
1c25                          7d             MOV  A,L
1c26                          99             SBB  C
1c27                          4f             MOV  C,A
1c28                          c9             RET
1c29                          06 00          MVI  B, 0
1c2b                          d6 08          SUI  8
1c2d                          da 58 11       JC   1158
1c30                          43             MOV  B,E
1c31                          5a             MOV  E,D
1c32                          51             MOV  D,C
1c33                          0e 00          MVI  C, 0
1c35                          c3 4b 11       JMP  114b
1c38                          c6 09          ADI  9
1c3a                          6f             MOV  L,A
1c3b                          af             XRA  A
1c3c                          2d             DCR  L
1c3d                          c8             RZ
1c3e                          79             MOV  A,C
1c3f                          1f             RAR
1c40                          4f             MOV  C,A
1c41                          7a             MOV  A,D
1c42                          1f             RAR
1c43                          57             MOV  D,A
1c44                          7b             MOV  A,E
1c45                          1f             RAR
1c46                          5f             MOV  E,A
1c47                          78             MOV  A,B
1c48                          1f             RAR
1c49                          47             MOV  B,A
1c4a                          c3 5b 11       JMP  115b
1c4d                          00             NOOP
1c4e                          00             NOOP
1c4f                          00             NOOP
1c50                          81             ADC  C
1c51                          03             INX  BC
1c52                          aa             XRA  D
1c53                          56             MOV  D,(HL)
1c54                          19             DAD  DE
1c55                          80             ADC  B
1c56                          f1             POP  PSW
1c57                          22 76 80       SHLD (8076)
1c5a                          45             MOV  B,L
1c5b                          aa             XRA  D
1c5c                          38             NOOP
1c5d                          82             ADC  D
1c5e                          ef             RST 5
1c5f                          ea 5c 06       JPE  065c
1c62                          21 50 02       LXI  HL, 0250
1c65                          7e             MOV  A,(HL)
1c66                          01 35 80       LXI  BC, 8035
1c69                          11 f3 04       LXI  DE, 04f3
1c6c                          90             SUB  B
1c6d                          f5             PUSH PSW
1c6e                          70             MOV  (HL),B
1c6f                          d5             PUSH DE
1c70                          c5             PUSH BC
1c71                          cd 82 10       CALL 1082
1c74                          c1             POP  BC
1c75                          d1             POP  DE
1c76                          04             INR  B
1c77                          cd 1a 12       CALL 121a
1c7a                          21 6d 11       LXI  HL, 116d
1c7d                          cd 79 10       CALL 1079
1c80                          21 71 11       LXI  HL, 1171
1c83                          cd fa 15       CALL 15fa
1c86                          01 80 80       LXI  BC, 8080
1c89                          11 00 00       LXI  DE, 0000
1c8c                          cd 82 10       CALL 1082
1c8f                          f1             POP  PSW
1c90                          cd 46 14       CALL 1446
1c93                          01 31 80       LXI  BC, 8031
1c96                          11 18 72       LXI  DE, 7218
1c99                          21 c1 d1       LXI  HL, d1c1
1c9c                          ef             RST 5
1c9d                          c8             RZ
1c9e                          2e 00          MVI  L, 0
1ca0                          cd 8a 12       CALL 128a
1ca3                          79             MOV  A,C
1ca4                          32 f3 11       STA  (11f3)
1ca7                          eb             XCHG
1ca8                          22 ee 11       SHLD (11ee)
1cab                          01 00 00       LXI  BC, 0000
1cae                          50             MOV  D,B
1caf                          58             MOV  E,B
1cb0                          21 d3 10       LXI  HL, 10d3
1cb3                          e5             PUSH HL
1cb4                          21 dc 11       LXI  HL, 11dc
1cb7                          e5             PUSH HL
1cb8                          e5             PUSH HL
1cb9                          21 4d 02       LXI  HL, 024d
1cbc                          7e             MOV  A,(HL)
1cbd                          23             INX  HL
1cbe                          b7             ORA  A
1cbf                          ca 07 12       JZ   1207
1cc2                          e5             PUSH HL
1cc3                          eb             XCHG
1cc4                          1e 08          MVI  E, 8
1cc6                          1f             RAR
1cc7                          57             MOV  D,A
1cc8                          79             MOV  A,C
1cc9                          d2 f4 11       JNC  11f4
1ccc                          d5             PUSH DE
1ccd                          11 00 00       LXI  DE, 0000
1cd0                          19             DAD  DE
1cd1                          d1             POP  DE
1cd2                          ce c8          ACI  c8
1cd4                          1f             RAR
1cd5                          4f             MOV  C,A
1cd6                          7c             MOV  A,H
1cd7                          1f             RAR
1cd8                          67             MOV  H,A
1cd9                          7d             MOV  A,L
1cda                          1f             RAR
1cdb                          6f             MOV  L,A
1cdc                          78             MOV  A,B
1cdd                          1f             RAR
1cde                          47             MOV  B,A
1cdf                          1d             DCR  E
1ce0                          7a             MOV  A,D
1ce1                          c2 e6 11       JNZ  11e6
1ce4                          eb             XCHG
1ce5                          e1             POP  HL
1ce6                          c9             RET
1ce7                          43             MOV  B,E
1ce8                          5a             MOV  E,D
1ce9                          51             MOV  D,C
1cea                          4f             MOV  C,A
1ceb                          c9             RET
1cec                          cd f2 12       CALL 12f2
1cef                          01 20 84       LXI  BC, 8420
1cf2                          11 00 00       LXI  DE, 0000
1cf5                          cd 02 13       CALL 1302
1cf8                          c1             POP  BC
1cf9                          d1             POP  DE
1cfa                          ef             RST 5
1cfb                          ca d3 02       JZ   02d3
1cfe                          2e ff          MVI  L, ff
1d00                          cd 8a 12       CALL 128a
1d03                          34             INR  (HL)
1d04                          34             INR  (HL)
1d05                          2b             DCX  HL
1d06                          7e             MOV  A,(HL)
1d07                          32 49 12       STA  (1249)
1d0a                          2b             DCX  HL
1d0b                          7e             MOV  A,(HL)
1d0c                          32 45 12       STA  (1245)
1d0f                          2b             DCX  HL
1d10                          7e             MOV  A,(HL)
1d11                          32 41 12       STA  (1241)
1d14                          41             MOV  B,C
1d15                          eb             XCHG
1d16                          af             XRA  A
1d17                          4f             MOV  C,A
1d18                          57             MOV  D,A
1d19                          5f             MOV  E,A
1d1a                          32 4c 12       STA  (124c)
1d1d                          e5             PUSH HL
1d1e                          c5             PUSH BC
1d1f                          7d             MOV  A,L
1d20                          d6 db          SUI  db
1d22                          6f             MOV  L,A
1d23                          7c             MOV  A,H
1d24                          de 0f          SBI  f
1d26                          67             MOV  H,A
1d27                          78             MOV  A,B
1d28                          de c9          SBI  c9
1d2a                          47             MOV  B,A
1d2b                          3e 00          MVI  A, 0
1d2d                          de 00          SBI  0
1d2f                          3f             CMC
1d30                          d2 5a 12       JNC  125a
1d33                          32 4c 12       STA  (124c)
1d36                          f1             POP  PSW
1d37                          f1             POP  PSW
1d38                          37             STC
1d39                          d2 c1 e1       JNC  e1c1
1d3c                          79             MOV  A,C
1d3d                          3c             INR  A
1d3e                          3d             DCR  A
1d3f                          1f             RAR
1d40                          fa 09 11       JM   1109
1d43                          17             RAL
1d44                          7b             MOV  A,E
1d45                          17             RAL
1d46                          5f             MOV  E,A
1d47                          7a             MOV  A,D
1d48                          17             RAL
1d49                          57             MOV  D,A
1d4a                          79             MOV  A,C
1d4b                          17             RAL
1d4c                          4f             MOV  C,A
1d4d                          29             DAD  HL
1d4e                          78             MOV  A,B
1d4f                          17             RAL
1d50                          47             MOV  B,A
1d51                          3a 4c 12       LDA  (124c)
1d54                          17             RAL
1d55                          32 4c 12       STA  (124c)
1d58                          79             MOV  A,C
1d59                          b2             ORA  D
1d5a                          b3             ORA  E
1d5b                          c2 3d 12       JNZ  123d
1d5e                          e5             PUSH HL
1d5f                          21 50 02       LXI  HL, 0250
1d62                          35             DCR  (HL)
1d63                          e1             POP  HL
1d64                          c2 3d 12       JNZ  123d
1d67                          c3 24 11       JMP  1124
1d6a                          78             MOV  A,B
1d6b                          b7             ORA  A
1d6c                          ca ac 12       JZ   12ac
1d6f                          7d             MOV  A,L
1d70                          21 50 02       LXI  HL, 0250
1d73                          ae             XRA  (HL)
1d74                          80             ADC  B
1d75                          47             MOV  B,A
1d76                          1f             RAR
1d77                          a8             XRA  B
1d78                          78             MOV  A,B
1d79                          f2 ab 12       JP   12ab
1d7c                          c6 80          ADI  80
1d7e                          77             MOV  (HL),A
1d7f                          ca 05 12       JZ   1205
1d82                          cd 27 13       CALL 1327
1d85                          77             MOV  (HL),A
1d86                          2b             DCX  HL
1d87                          c9             RET
1d88                          ef             RST 5
1d89                          2f             CMA
1d8a                          e1             POP  HL
1d8b                          b7             ORA  A
1d8c                          e1             POP  HL
1d8d                          f2 e8 10       JP   10e8
1d90                          c3 24 11       JMP  1124
1d93                          cd 0d 13       CALL 130d
1d96                          78             MOV  A,B
1d97                          b7             ORA  A
1d98                          c8             RZ
1d99                          c6 02          ADI  2
1d9b                          da 24 11       JC   1124
1d9e                          47             MOV  B,A
1d9f                          cd 82 10       CALL 1082
1da2                          21 50 02       LXI  HL, 0250
1da5                          34             INR  (HL)
1da6                          c0             RNZ
1da7                          c3 24 11       JMP  1124
1daa                          3a 4f 02       LDA  (024f)
1dad                          fe 2f          CPI  2f
1daf                          17             RAL
1db0                          9f             SBB  A
1db1                          c0             RNZ
1db2                          3c             INR  A
1db3                          c9             RET
1db4                          ef             RST 5
1db5                          06 88          MVI  B, 88
1db7                          11 00 00       LXI  DE, 0000
1dba                          21 50 02       LXI  HL, 0250
1dbd                          4f             MOV  C,A
1dbe                          70             MOV  (HL),B
1dbf                          06 00          MVI  B, 0
1dc1                          23             INX  HL
1dc2                          36 80          MVI  (HL), 80
1dc4                          17             RAL
1dc5                          c3 d0 10       JMP  10d0
1dc8                          ef             RST 5
1dc9                          f0             RP
1dca                          21 4f 02       LXI  HL, 024f
1dcd                          7e             MOV  A,(HL)
1dce                          ee 80          XRI  {operand1.toString(16)}
1dd0                          77             MOV  (HL),A
1dd1                          c9             RET
1dd2                          eb             XCHG
1dd3                          2a 4d 02       LHLD (024d
1dd6                          e3             XTHL
1dd7                          e5             PUSH HL
1dd8                          2a 4f 02       LHLD (024f
1ddb                          e3             XTHL
1ddc                          e5             PUSH HL
1ddd                          eb             XCHG
1dde                          c9             RET
1ddf                          cd 10 13       CALL 1310
1de2                          eb             XCHG
1de3                          22 4d 02       SHLD (024d)
1de6                          60             MOV  H,B
1de7                          69             MOV  L,C
1de8                          22 4f 02       SHLD (024f)
1deb                          eb             XCHG
1dec                          c9             RET
1ded                          21 4d 02       LXI  HL, 024d
1df0                          5e             MOV  E,(HL)
1df1                          23             INX  HL
1df2                          56             MOV  D,(HL)
1df3                          23             INX  HL
1df4                          4e             MOV  C,(HL)
1df5                          23             INX  HL
1df6                          46             MOV  B,(HL)
1df7                          23             INX  HL
1df8                          c9             RET
1df9                          11 4d 02       LXI  DE, 024d
1dfc                          06 04          MVI  B, 4
1dfe                          1a             LDAX DE
1dff                          77             MOV  (HL),A
1e00                          13             INX  DE
1e01                          23             INX  HL
1e02                          05             DCR  B
1e03                          c2 1e 13       JNZ  131e
1e06                          c9             RET
1e07                          21 4f 02       LXI  HL, 024f
1e0a                          7e             MOV  A,(HL)
1e0b                          07             RLC
1e0c                          37             STC
1e0d                          1f             RAR
1e0e                          77             MOV  (HL),A
1e0f                          3f             CMC
1e10                          1f             RAR
1e11                          23             INX  HL
1e12                          23             INX  HL
1e13                          77             MOV  (HL),A
1e14                          79             MOV  A,C
1e15                          07             RLC
1e16                          37             STC
1e17                          1f             RAR
1e18                          4f             MOV  C,A
1e19                          1f             RAR
1e1a                          ae             XRA  (HL)
1e1b                          c9             RET
1e1c                          78             MOV  A,B
1e1d                          b7             ORA  A
1e1e                          ca 28 00       JZ   0028
1e21                          21 ce 12       LXI  HL, 12ce
1e24                          e5             PUSH HL
1e25                          ef             RST 5
1e26                          79             MOV  A,C
1e27                          c8             RZ
1e28                          21 4f 02       LXI  HL, 024f
1e2b                          ae             XRA  (HL)
1e2c                          79             MOV  A,C
1e2d                          f8             RM
1e2e                          cd 54 13       CALL 1354
1e31                          1f             RAR
1e32                          a9             XRA  C
1e33                          c9             RET
1e34                          23             INX  HL
1e35                          78             MOV  A,B
1e36                          be             CMP  (HL)
1e37                          c0             RNZ
1e38                          2b             DCX  HL
1e39                          79             MOV  A,C
1e3a                          be             CMP  (HL)
1e3b                          c0             RNZ
1e3c                          2b             DCX  HL
1e3d                          7a             MOV  A,D
1e3e                          be             CMP  (HL)
1e3f                          c0             RNZ
1e40                          2b             DCX  HL
1e41                          7b             MOV  A,E
1e42                          96             SUB  (HL)
1e43                          c0             RNZ
1e44                          e1             POP  HL
1e45                          e1             POP  HL
1e46                          c9             RET
1e47                          47             MOV  B,A
1e48                          4f             MOV  C,A
1e49                          57             MOV  D,A
1e4a                          5f             MOV  E,A
1e4b                          b7             ORA  A
1e4c                          c8             RZ
1e4d                          e5             PUSH HL
1e4e                          cd 0d 13       CALL 130d
1e51                          cd 27 13       CALL 1327
1e54                          ae             XRA  (HL)
1e55                          67             MOV  H,A
1e56                          fc 8b 13       CM   138b
1e59                          3e 98          MVI  A, 98
1e5b                          90             SUB  B
1e5c                          cd 49 11       CALL 1149
1e5f                          7c             MOV  A,H
1e60                          17             RAL
1e61                          dc 1a 11       CC   111a
1e64                          06 00          MVI  B, 0
1e66                          dc 35 11       CC   1135
1e69                          e1             POP  HL
1e6a                          c9             RET
1e6b                          1b             DCX  DE
1e6c                          7a             MOV  A,D
1e6d                          a3             ANA  E
1e6e                          3c             INR  A
1e6f                          c0             RNZ
1e70                          0d             DCR  C
1e71                          c9             RET
1e72                          21 50 02       LXI  HL, 0250
1e75                          7e             MOV  A,(HL)
1e76                          fe 98          CPI  98
1e78                          3a 4d 02       LDA  (024d)
1e7b                          d0             RNC
1e7c                          7e             MOV  A,(HL)
1e7d                          cd 67 13       CALL 1367
1e80                          36 98          MVI  (HL), 98
1e82                          7b             MOV  A,E
1e83                          f5             PUSH PSW
1e84                          79             MOV  A,C
1e85                          17             RAL
1e86                          cd d0 10       CALL 10d0
1e89                          f1             POP  PSW
1e8a                          c9             RET
1e8b                          21 00 00       LXI  HL, 0000
1e8e                          78             MOV  A,B
1e8f                          b1             ORA  C
1e90                          c8             RZ
1e91                          3e 10          MVI  A, 10
1e93                          29             DAD  HL
1e94                          da ee 0b       JC   0bee
1e97                          eb             XCHG
1e98                          29             DAD  HL
1e99                          eb             XCHG
1e9a                          d2 c1 13       JNC  13c1
1e9d                          09             DAD  BC
1e9e                          da ee 0b       JC   0bee
1ea1                          3d             DCR  A
1ea2                          c2 b3 13       JNZ  13b3
1ea5                          c9             RET
1ea6                          fe 2d          CPI  2d
1ea8                          f5             PUSH PSW
1ea9                          ca d2 13       JZ   13d2
1eac                          fe 2b          CPI  2b
1eae                          ca d2 13       JZ   13d2
1eb1                          2b             DCX  HL
1eb2                          cd e8 10       CALL 10e8
1eb5                          47             MOV  B,A
1eb6                          57             MOV  D,A
1eb7                          5f             MOV  E,A
1eb8                          2f             CMA
1eb9                          4f             MOV  C,A
1eba                          d7             RST 2
1ebb                          da 2f 14       JC   142f
1ebe                          fe 2e          CPI  2e
1ec0                          ca 0a 14       JZ   140a
1ec3                          fe 45          CPI  45
1ec5                          c2 0e 14       JNZ  140e
1ec8                          d7             RST 2
1ec9                          e5             PUSH HL
1eca                          21 fe 13       LXI  HL, 13fe
1ecd                          e3             XTHL
1ece                          15             DCR  D
1ecf                          fe a5          CPI  a5
1ed1                          c8             RZ
1ed2                          fe 2d          CPI  2d
1ed4                          c8             RZ
1ed5                          14             INR  D
1ed6                          fe 2b          CPI  2b
1ed8                          c8             RZ
1ed9                          fe a4          CPI  a4
1edb                          c8             RZ
1edc                          f1             POP  PSW
1edd                          2b             DCX  HL
1ede                          d7             RST 2
1edf                          da 51 14       JC   1451
1ee2                          14             INR  D
1ee3                          c2 0e 14       JNZ  140e
1ee6                          af             XRA  A
1ee7                          93             SUB  E
1ee8                          5f             MOV  E,A
1ee9                          0c             INR  C
1eea                          0c             INR  C
1eeb                          ca da 13       JZ   13da
1eee                          e5             PUSH HL
1eef                          7b             MOV  A,E
1ef0                          90             SUB  B
1ef1                          f4 27 14       CP   1427
1ef4                          f2 1d 14       JP   141d
1ef7                          f5             PUSH PSW
1ef8                          cd 0c 12       CALL 120c
1efb                          f1             POP  PSW
1efc                          3c             INR  A
1efd                          c2 11 14       JNZ  1411
1f00                          d1             POP  DE
1f01                          f1             POP  PSW
1f02                          cc ea 12       CZ   12ea
1f05                          eb             XCHG
1f06                          c9             RET
1f07                          c8             RZ
1f08                          f5             PUSH PSW
1f09                          cd b3 12       CALL 12b3
1f0c                          f1             POP  PSW
1f0d                          3d             DCR  A
1f0e                          c9             RET
1f0f                          d5             PUSH DE
1f10                          57             MOV  D,A
1f11                          78             MOV  A,B
1f12                          89             ADC  C
1f13                          47             MOV  B,A
1f14                          c5             PUSH BC
1f15                          e5             PUSH HL
1f16                          d5             PUSH DE
1f17                          cd b3 12       CALL 12b3
1f1a                          f1             POP  PSW
1f1b                          d6 30          SUI  30
1f1d                          cd 46 14       CALL 1446
1f20                          e1             POP  HL
1f21                          c1             POP  BC
1f22                          d1             POP  DE
1f23                          c3 da 13       JMP  13da
1f26                          cd f2 12       CALL 12f2
1f29                          cd d5 12       CALL 12d5
1f2c                          c1             POP  BC
1f2d                          d1             POP  DE
1f2e                          c3 82 10       JMP  1082
1f31                          7b             MOV  A,E
1f32                          07             RLC
1f33                          07             RLC
1f34                          83             ADC  E
1f35                          07             RLC
1f36                          86             ADC  (HL)
1f37                          d6 30          SUI  30
1f39                          5f             MOV  E,A
1f3a                          c3 fe 13       JMP  13fe
1f3d                          e5             PUSH HL
1f3e                          21 66 02       LXI  HL, 0266
1f41                          cd 93 0d       CALL 0d93
1f44                          e1             POP  HL
1f45                          eb             XCHG
1f46                          af             XRA  A
1f47                          06 98          MVI  B, 98
1f49                          cd da 12       CALL 12da
1f4c                          21 92 0d       LXI  HL, 0d92
1f4f                          e5             PUSH HL
1f50                          21 52 02       LXI  HL, 0252
1f53                          e5             PUSH HL
1f54                          ef             RST 5
1f55                          36 20          MVI  (HL), 20
1f57                          f2 7c 14       JP   147c
1f5a                          36 2d          MVI  (HL), 2d
1f5c                          23             INX  HL
1f5d                          36 30          MVI  (HL), 30
1f5f                          ca 25 15       JZ   1525
1f62                          e5             PUSH HL
1f63                          fc ea 12       CM   12ea
1f66                          af             XRA  A
1f67                          f5             PUSH PSW
1f68                          cd 2b 15       CALL 152b
1f6b                          01 43 91       LXI  BC, 9143
1f6e                          11 f8 4f       LXI  DE, 4ff8
1f71                          cd 3c 13       CALL 133c
1f74                          e2 a8 14       JPO  14a8
1f77                          f1             POP  PSW
1f78                          cd 28 14       CALL 1428
1f7b                          f5             PUSH PSW
1f7c                          c3 8b 14       JMP  148b
1f7f                          cd 0c 12       CALL 120c
1f82                          f1             POP  PSW
1f83                          3c             INR  A
1f84                          f5             PUSH PSW
1f85                          cd 2b 15       CALL 152b
1f88                          cd 70 10       CALL 1070
1f8b                          3c             INR  A
1f8c                          cd 67 13       CALL 1367
1f8f                          cd 02 13       CALL 1302
1f92                          01 06 02       LXI  BC, 0206
1f95                          f1             POP  PSW
1f96                          81             ADC  C
1f97                          fa c3 14       JM   14c3
1f9a                          fe 07          CPI  7
1f9c                          d2 c3 14       JNC  14c3
1f9f                          3c             INR  A
1fa0                          47             MOV  B,A
1fa1                          3e 01          MVI  A, 1
1fa3                          3d             DCR  A
1fa4                          e1             POP  HL
1fa5                          f5             PUSH PSW
1fa6                          11 3d 15       LXI  DE, 153d
1fa9                          05             DCR  B
1faa                          36 2e          MVI  (HL), 2e
1fac                          cc 17 13       CZ   1317
1faf                          c5             PUSH BC
1fb0                          e5             PUSH HL
1fb1                          d5             PUSH DE
1fb2                          cd 0d 13       CALL 130d
1fb5                          e1             POP  HL
1fb6                          06 2f          MVI  B, 2f
1fb8                          04             INR  B
1fb9                          7b             MOV  A,E
1fba                          96             SUB  (HL)
1fbb                          5f             MOV  E,A
1fbc                          23             INX  HL
1fbd                          7a             MOV  A,D
1fbe                          9e             SBB  (HL)
1fbf                          57             MOV  D,A
1fc0                          23             INX  HL
1fc1                          79             MOV  A,C
1fc2                          9e             SBB  (HL)
1fc3                          4f             MOV  C,A
1fc4                          2b             DCX  HL
1fc5                          2b             DCX  HL
1fc6                          d2 d8 14       JNC  14d8
1fc9                          cd 29 11       CALL 1129
1fcc                          23             INX  HL
1fcd                          cd 02 13       CALL 1302
1fd0                          eb             XCHG
1fd1                          e1             POP  HL
1fd2                          70             MOV  (HL),B
1fd3                          23             INX  HL
1fd4                          c1             POP  BC
1fd5                          0d             DCR  C
1fd6                          c2 c9 14       JNZ  14c9
1fd9                          05             DCR  B
1fda                          ca 09 15       JZ   1509
1fdd                          2b             DCX  HL
1fde                          7e             MOV  A,(HL)
1fdf                          fe 30          CPI  30
1fe1                          ca fd 14       JZ   14fd
1fe4                          fe 2e          CPI  2e
1fe6                          c4 17 13       CNZ  1317
1fe9                          f1             POP  PSW
1fea                          ca 28 15       JZ   1528
1fed                          36 45          MVI  (HL), 45
1fef                          23             INX  HL
1ff0                          36 2b          MVI  (HL), 2b
1ff2                          f2 19 15       JP   1519
1ff5                          36 2d          MVI  (HL), 2d
1ff7                          2f             CMA
1ff8                          3c             INR  A
1ff9                          06 2f          MVI  B, 2f
1ffb                          04             INR  B
1ffc                          d6 0a          SUI  a
1ffe                          d2 1b 15       JNC  151b
2001                          c6 3a          ADI  3a
2003                          23             INX  HL
2004                          70             MOV  (HL),B
2005                          23             INX  HL
2006                          77             MOV  (HL),A
2007                          23             INX  HL
2008                          71             MOV  (HL),C
2009                          e1             POP  HL
200a                          c9             RET
200b                          01 74 94       LXI  BC, 9474
200e                          11 f7 23       LXI  DE, 23f7
2011                          cd 3c 13       CALL 133c
2014                          e1             POP  HL
2015                          e2 9f 14       JPO  149f
2018                          e9             PCHL
2019                          00             NOOP
201a                          00             NOOP
201b                          00             NOOP
201c                          80             ADC  B
201d                          a0             ANA  B
201e                          86             ADC  (HL)
201f                          01 10 27       LXI  BC, 2710
2022                          00             NOOP
2023                          e8             RPE
2024                          03             INX  BC
2025                          00             NOOP
2026                          64             MOV  H,H
2027                          00             NOOP
2028                          00             NOOP
2029                          0a             LDAX BC
202a                          00             NOOP
202b                          00             NOOP
202c                          01 00 00       LXI  BC, 0000
202f                          21 ea 12       LXI  HL, 12ea
2032                          e3             XTHL
2033                          e9             PCHL
2034                          cd f2 12       CALL 12f2
2037                          21 39 15       LXI  HL, 1539
203a                          cd ff 12       CALL 12ff
203d                          c1             POP  BC
203e                          d1             POP  DE
203f                          ef             RST 5
2040                          ca 99 15       JZ   1599
2043                          78             MOV  A,B
2044                          b7             ORA  A
2045                          ca e9 10       JZ   10e9
2048                          d5             PUSH DE
2049                          c5             PUSH BC
204a                          79             MOV  A,C
204b                          f6 7f          ORI  7f
204d                          cd 0d 13       CALL 130d
2050                          f2 81 15       JP   1581
2053                          d5             PUSH DE
2054                          c5             PUSH BC
2055                          cd 92 13       CALL 1392
2058                          c1             POP  BC
2059                          d1             POP  DE
205a                          f5             PUSH PSW
205b                          cd 3c 13       CALL 133c
205e                          e1             POP  HL
205f                          7c             MOV  A,H
2060                          1f             RAR
2061                          e1             POP  HL
2062                          22 4f 02       SHLD (024f)
2065                          e1             POP  HL
2066                          22 4d 02       SHLD (024d)
2069                          dc 4f 15       CC   154f
206c                          cc ea 12       CZ   12ea
206f                          d5             PUSH DE
2070                          c5             PUSH BC
2071                          cd 7e 11       CALL 117e
2074                          c1             POP  BC
2075                          d1             POP  DE
2076                          cd bc 11       CALL 11bc
2079                          cd f2 12       CALL 12f2
207c                          01 38 81       LXI  BC, 8138
207f                          11 3b aa       LXI  DE, aa3b
2082                          cd bc 11       CALL 11bc
2085                          3a 50 02       LDA  (0250)
2088                          fe 88          CPI  88
208a                          d2 a8 12       JNC  12a8
208d                          cd 92 13       CALL 1392
2090                          c6 80          ADI  80
2092                          c6 02          ADI  2
2094                          da a8 12       JC   12a8
2097                          f5             PUSH PSW
2098                          21 6d 11       LXI  HL, 116d
209b                          cd 73 10       CALL 1073
209e                          cd b3 11       CALL 11b3
20a1                          f1             POP  PSW
20a2                          c1             POP  BC
20a3                          d1             POP  DE
20a4                          f5             PUSH PSW
20a5                          cd 7f 10       CALL 107f
20a8                          cd ea 12       CALL 12ea
20ab                          21 d9 15       LXI  HL, 15d9
20ae                          cd 09 16       CALL 1609
20b1                          11 00 00       LXI  DE, 0000
20b4                          c1             POP  BC
20b5                          4a             MOV  C,D
20b6                          c3 bc 11       JMP  11bc
20b9                          08             NOOP
20ba                          40             MOV  B,B
20bb                          2e 94          MVI  L, 94
20bd                          74             MOV  (HL),H
20be                          70             MOV  (HL),B
20bf                          4f             MOV  C,A
20c0                          2e 77          MVI  L, 77
20c2                          6e             MOV  L,(HL)
20c3                          02             STAX BC
20c4                          88             ADC  B
20c5                          7a             MOV  A,D
20c6                          e6             ANI  a0
20c7                          a0             ANA  B
20c8                          2a 7c 50       LHLD (507c
20cb                          aa             XRA  D
20cc                          aa             XRA  D
20cd                          7e             MOV  A,(HL)
20ce                          ff             RST 7
20cf                          ff             RST 7
20d0                          7f             MOV  A,A
20d1                          7f             MOV  A,A
20d2                          00             NOOP
20d3                          00             NOOP
20d4                          80             ADC  B
20d5                          81             ADC  C
20d6                          00             NOOP
20d7                          00             NOOP
20d8                          00             NOOP
20d9                          81             ADC  C
20da                          cd f2 12       CALL 12f2
20dd                          11 ba 11       LXI  DE, 11ba
20e0                          d5             PUSH DE
20e1                          e5             PUSH HL
20e2                          cd 0d 13       CALL 130d
20e5                          cd bc 11       CALL 11bc
20e8                          e1             POP  HL
20e9                          cd f2 12       CALL 12f2
20ec                          7e             MOV  A,(HL)
20ed                          23             INX  HL
20ee                          cd ff 12       CALL 12ff
20f1                          06 f1          MVI  B, f1
20f3                          c1             POP  BC
20f4                          d1             POP  DE
20f5                          3d             DCR  A
20f6                          c8             RZ
20f7                          d5             PUSH DE
20f8                          c5             PUSH BC
20f9                          f5             PUSH PSW
20fa                          e5             PUSH HL
20fb                          cd bc 11       CALL 11bc
20fe                          e1             POP  HL
20ff                          cd 10 13       CALL 1310
2102                          e5             PUSH HL
2103                          cd 82 10       CALL 1082
2106                          e1             POP  HL
2107                          c3 12 16       JMP  1612
210a                          ef             RST 5
210b                          fa 47 16       JM   1647
210e                          21 5c 16       LXI  HL, 165c
2111                          cd ff 12       CALL 12ff
2114                          c8             RZ
2115                          01 35 98       LXI  BC, 9835
2118                          11 7a 44       LXI  DE, 447a
211b                          cd bc 11       CALL 11bc
211e                          01 28 68       LXI  BC, 6828
2121                          11 46 b1       LXI  DE, b146
2124                          cd 82 10       CALL 1082
2127                          cd 0d 13       CALL 130d
212a                          7b             MOV  A,E
212b                          59             MOV  E,C
212c                          4f             MOV  C,A
212d                          36 80          MVI  (HL), 80
212f                          2b             DCX  HL
2130                          46             MOV  B,(HL)
2131                          36 80          MVI  (HL), 80
2133                          cd d3 10       CALL 10d3
2136                          21 5c 16       LXI  HL, 165c
2139                          c3 19 13       JMP  1319
213c                          45             MOV  B,L
213d                          f3             DI
213e                          03             INX  BC
213f                          80             ADC  B
2140                          21 a6 16       LXI  HL, 16a6
2143                          cd 73 10       CALL 1073
2146                          cd f2 12       CALL 12f2
2149                          01 49 83       LXI  BC, 8349
214c                          11 db 0f       LXI  DE, 0fdb
214f                          cd 02 13       CALL 1302
2152                          c1             POP  BC
2153                          d1             POP  DE
2154                          cd 1a 12       CALL 121a
2157                          cd f2 12       CALL 12f2
215a                          cd 92 13       CALL 1392
215d                          c1             POP  BC
215e                          d1             POP  DE
215f                          cd 7f 10       CALL 107f
2162                          21 aa 16       LXI  HL, 16aa
2165                          cd 79 10       CALL 1079
2168                          ef             RST 5
2169                          37             STC
216a                          f2 92 16       JP   1692
216d                          cd 70 10       CALL 1070
2170                          ef             RST 5
2171                          b7             ORA  A
2172                          f5             PUSH PSW
2173                          f4 ea 12       CP   12ea
2176                          21 aa 16       LXI  HL, 16aa
2179                          cd 73 10       CALL 1073
217c                          f1             POP  PSW
217d                          d4 ea 12       CNC  12ea
2180                          21 ae 16       LXI  HL, 16ae
2183                          c3 fa 15       JMP  15fa
2186                          db 0f          IN   f
2188                          49             MOV  C,C
2189                          81             ADC  C
218a                          00             NOOP
218b                          00             NOOP
218c                          00             NOOP
218d                          7f             MOV  A,A
218e                          05             DCR  B
218f                          ba             CMP  D
2190                          d7             RST 2
2191                          1e 86          MVI  E, 86
2193                          64             MOV  H,H
2194                          26 99          MVI  H, 99
2196                          87             ADC  A
2197                          58             MOV  E,B
2198                          34             INR  (HL)
2199                          23             INX  HL
219a                          87             ADC  A
219b                          e0             RPO
219c                          5d             MOV  E,L
219d                          a5             ANA  L
219e                          86             ADC  (HL)
219f                          da 0f 49       JC   490f
21a2                          83             ADC  E
21a3                          cd f2 12       CALL 12f2
21a6                          cd 66 16       CALL 1666
21a9                          c1             POP  BC
21aa                          e1             POP  HL
21ab                          cd f2 12       CALL 12f2
21ae                          eb             XCHG
21af                          cd 02 13       CALL 1302
21b2                          cd 60 16       CALL 1660
21b5                          c3 18 12       JMP  1218
21b8                          ef             RST 5
21b9                          fc 4f 15       CM   154f
21bc                          fc ea 12       CM   12ea
21bf                          3a 50 02       LDA  (0250)
21c2                          fe 81          CPI  81
21c4                          da f3 16       JC   16f3
21c7                          01 00 81       LXI  BC, 8100
21ca                          51             MOV  D,C
21cb                          59             MOV  E,C
21cc                          cd 1a 12       CALL 121a
21cf                          21 79 10       LXI  HL, 1079
21d2                          e5             PUSH HL
21d3                          21 fd 16       LXI  HL, 16fd
21d6                          cd fa 15       CALL 15fa
21d9                          21 a6 16       LXI  HL, 16a6
21dc                          c9             RET
21dd                          09             DAD  BC
21de                          4a             MOV  C,D
21df                          d7             RST 2
21e0                          3b             DCX  SP
21e1                          78             MOV  A,B
21e2                          02             STAX BC
21e3                          6e             MOV  L,(HL)
21e4                          84             ADC  H
21e5                          7b             MOV  A,E
21e6                          fe c1          CPI  c1
21e8                          2f             CMA
21e9                          7c             MOV  A,H
21ea                          74             MOV  (HL),H
21eb                          31 9a 7d       LXI  SP, 7d9a
21ee                          84             ADC  H
21ef                          3d             DCR  A
21f0                          5a             MOV  E,D
21f1                          7d             MOV  A,L
21f2                          c8             RZ
21f3                          7f             MOV  A,A
21f4                          91             SUB  C
21f5                          7e             MOV  A,(HL)
21f6                          e4 bb 4c       CPO  4cbb
21f9                          7e             MOV  A,(HL)
21fa                          6c             MOV  L,H
21fb                          aa             XRA  D
21fc                          aa             XRA  D
21fd                          7f             MOV  A,A
21fe                          00             NOOP
21ff                          00             NOOP
2200                          00             NOOP
2201                          81             ADC  C
2202                          00             NOOP
2203                          00             NOOP
2204                          ef             RST 5
2205                          cd 49 06       CALL 0649
2208                          1a             LDAX DE
2209                          c3 ab 0c       JMP  0cab
220c                          cd 66 09       CALL 0966
220f                          ef             RST 5
2210                          cd 49 06       CALL 0649
2213                          c3 67 10       JMP  1067
2216                          ef             RST 5
2217                          cd 49 06       CALL 0649
221a                          eb             XCHG
221b                          cd 41 17       CALL 1741
221e                          c3 ab 0c       JMP  0cab
2221                          e9             PCHL
2222                          af             XRA  A
2223                          32 50 1b       STA  (1b50)
2226                          21 56 17       LXI  HL, 1756
2229                          7e             MOV  A,(HL)
222a                          b7             ORA  A
222b                          ca fd 02       JZ   02fd
222e                          4e             MOV  C,(HL)
222f                          23             INX  HL
2230                          cd 37 c0       CALL c037
2233                          c3 49 17       JMP  1749
2236                          1f             RAR
2237                          0d             DCR  C
2238                          0a             LDAX BC
2239                          2a 20 42       LHLD (4220
223c                          41             MOV  B,C
223d                          53             MOV  D,E
223e                          49             MOV  C,C
223f                          43             MOV  B,E
2240                          20             NOOP
2241                          2a 00 20       LHLD (2000
2244                          42             MOV  B,D
2245                          41             MOV  B,C
2246                          53             MOV  D,E
2247                          49             MOV  C,C
2248                          43             MOV  B,E
2249                          00             NOOP
224a                          cd b9 0f       CALL 0fb9
224d                          32 f9 8f       STA  (8ff9)
2250                          cf             RST 1
2251                          2c             INR  L
2252                          cd b9 0f       CALL 0fb9
2255                          fe f8          CPI  f8
2257                          d2 5c 06       JNC  065c
225a                          2f             CMA
225b                          32 f8 8f       STA  (8ff8)
225e                          3a f9 8f       LDA  (8ff9)
2261                          fe be          CPI  be
2263                          d2 5c 06       JNC  065c
2266                          e5             PUSH HL
2267                          2a f8 8f       LHLD (8ff8
226a                          22 fc 8f       SHLD (8ffc)
226d                          3e 00          MVI  A, 0
226f                          32 27 00       STA  (0027)
2272                          e1             POP  HL
2273                          c9             RET
2274                          cd b9 0f       CALL 0fb9
2277                          fe 01          CPI  1
2279                          d2 a2 17       JNC  17a2
227c                          0e 1f          MVI  C, 1f
227e                          cd 37 c0       CALL c037
2281                          c9             RET
2282                          e5             PUSH HL
2283                          21 00 00       LXI  HL, 0000
2286                          ca ac 17       JZ   17ac
2289                          21 ff ff       LXI  HL, ffff
228c                          22 fa 8f       SHLD (8ffa)
228f                          e1             POP  HL
2290                          0e 1f          MVI  C, 1f
2292                          cd 37 c0       CALL c037
2295                          c9             RET
2296                          cd 66 09       CALL 0966
2299                          ef             RST 5
229a                          cd 49 06       CALL 0649
229d                          d5             PUSH DE
229e                          cf             RST 1
229f                          2c             INR  L
22a0                          cd b9 0f       CALL 0fb9
22a3                          2f             CMA
22a4                          32 d2 1e       STA  (1ed2)
22a7                          cf             RST 1
22a8                          2c             INR  L
22a9                          cd b9 0f       CALL 0fb9
22ac                          32 d3 1e       STA  (1ed3)
22af                          e3             XTHL
22b0                          22 d0 1e       SHLD (1ed0)
22b3                          cd d8 17       CALL 17d8
22b6                          e1             POP  HL
22b7                          c9             RET
22b8                          e5             PUSH HL
22b9                          2a d0 1e       LHLD (1ed0
22bc                          e5             PUSH HL
22bd                          11 80 fe       LXI  DE, fe80
22c0                          19             DAD  DE
22c1                          da 5c 06       JC   065c
22c4                          e1             POP  HL
22c5                          7d             MOV  A,L
22c6                          e6             ANI  7
22c7                          07             RLC
22c8                          29             DAD  HL
22c9                          29             DAD  HL
22ca                          29             DAD  HL
22cb                          29             DAD  HL
22cc                          29             DAD  HL
22cd                          11 00 90       LXI  DE, 9000
22d0                          19             DAD  DE
22d1                          4f             MOV  C,A
22d2                          3a d2 1e       LDA  (1ed2)
22d5                          6f             MOV  L,A
22d6                          3e 01          MVI  A, 1
22d8                          0f             RRC
22d9                          0d             DCR  C
22da                          f2 f8 17       JP   17f8
22dd                          cd 03 18       CALL 1803
22e0                          e1             POP  HL
22e1                          c9             RET
22e2                          00             NOOP
22e3                          4f             MOV  C,A
22e4                          3a d3 1e       LDA  (1ed3)
22e7                          fe 01          CPI  1
22e9                          ca 19 18       JZ   1819
22ec                          fe 02          CPI  2
22ee                          ca 1e 18       JZ   181e
22f1                          fe 03          CPI  3
22f3                          ca 22 18       JZ   1822
22f6                          c3 1d 1c       JMP  1c1d
22f9                          79             MOV  A,C
22fa                          2f             CMA
22fb                          a6             ANA  (HL)
22fc                          77             MOV  (HL),A
22fd                          c9             RET
22fe                          79             MOV  A,C
22ff                          b6             ORA  (HL)
2300                          77             MOV  (HL),A
2301                          c9             RET
2302                          79             MOV  A,C
2303                          ae             XRA  (HL)
2304                          77             MOV  (HL),A
2305                          c9             RET
2306                          ff             RST 7
2307                          cd 66 09       CALL 0966
230a                          ef             RST 5
230b                          cd 49 06       CALL 0649
230e                          d5             PUSH DE
230f                          cf             RST 1
2310                          2c             INR  L
2311                          cd 66 09       CALL 0966
2314                          ef             RST 5
2315                          cd 49 06       CALL 0649
2318                          eb             XCHG
2319                          22 d6 1e       SHLD (1ed6)
231c                          e1             POP  HL
231d                          22 d4 1e       SHLD (1ed4)
2320                          d5             PUSH DE
2321                          2a d4 1e       LHLD (1ed4
2324                          7c             MOV  A,H
2325                          b7             ORA  A
2326                          fc 7b 18       CM   187b
2329                          22 d9 1e       SHLD (1ed9)
232c                          eb             XCHG
232d                          2a d6 1e       LHLD (1ed6
2330                          7c             MOV  A,H
2331                          b7             ORA  A
2332                          f4 83 18       CP   1883
2335                          e5             PUSH HL
2336                          c1             POP  BC
2337                          22 db 1e       SHLD (1edb)
233a                          cd 7b 18       CALL 187b
233d                          19             DAD  DE
233e                          e5             PUSH HL
233f                          2a db 1e       LHLD (1edb
2342                          19             DAD  DE
2343                          f5             PUSH PSW
2344                          3f             CMC
2345                          7c             MOV  A,H
2346                          1f             RAR
2347                          67             MOV  H,A
2348                          7d             MOV  A,L
2349                          1f             RAR
234a                          6f             MOV  L,A
234b                          f1             POP  PSW
234c                          da 50 19       JC   1950
234f                          3a db 1e       LDA  (1edb)
2352                          b7             ORA  A
2353                          c2 5f 19       JNZ  195f
2356                          c3 0b 1a       JMP  1a0b
2359                          00             NOOP
235a                          00             NOOP
235b                          2b             DCX  HL
235c                          7c             MOV  A,H
235d                          2f             CMA
235e                          67             MOV  H,A
235f                          7d             MOV  A,L
2360                          2f             CMA
2361                          6f             MOV  L,A
2362                          c9             RET
2363                          7c             MOV  A,H
2364                          2f             CMA
2365                          67             MOV  H,A
2366                          7d             MOV  A,L
2367                          2f             CMA
2368                          6f             MOV  L,A
2369                          23             INX  HL
236a                          c9             RET
236b                          e5             PUSH HL
236c                          3a d8 1e       LDA  (1ed8)
236f                          fe 01          CPI  1
2371                          cc e5 18       CZ   18e5
2374                          2a d0 1e       LHLD (1ed0
2377                          3a d5 1e       LDA  (1ed5)
237a                          b7             ORA  A
237b                          fa d5 18       JM   18d5
237e                          23             INX  HL
237f                          22 d0 1e       SHLD (1ed0)
2382                          3a d8 1e       LDA  (1ed8)
2385                          fe 02          CPI  2
2387                          3e 01          MVI  A, 1
2389                          32 d8 1e       STA  (1ed8)
238c                          cc dd 18       CZ   18dd
238f                          e1             POP  HL
2390                          c9             RET
2391                          3a d8 1e       LDA  (1ed8)
2394                          fe 02          CPI  2
2396                          cc e5 18       CZ   18e5
2399                          3a d7 1e       LDA  (1ed7)
239c                          b7             ORA  A
239d                          3a d2 1e       LDA  (1ed2)
23a0                          f2 d9 18       JP   18d9
23a3                          3c             INR  A
23a4                          32 d2 1e       STA  (1ed2)
23a7                          3a d8 1e       LDA  (1ed8)
23aa                          fe 01          CPI  1
23ac                          3e 02          MVI  A, 2
23ae                          32 d8 1e       STA  (1ed8)
23b1                          cc dd 18       CZ   18dd
23b4                          c9             RET
23b5                          2b             DCX  HL
23b6                          c3 9f 18       JMP  189f
23b9                          3d             DCR  A
23ba                          c3 c4 18       JMP  18c4
23bd                          af             XRA  A
23be                          32 d8 1e       STA  (1ed8)
23c1                          cd e5 18       CALL 18e5
23c4                          c9             RET
23c5                          d5             PUSH DE
23c6                          c5             PUSH BC
23c7                          cd d8 17       CALL 17d8
23ca                          c1             POP  BC
23cb                          d1             POP  DE
23cc                          c9             RET
23cd                          18             NOOP
23ce                          e5             PUSH HL
23cf                          2e 00          MVI  L, 0
23d1                          af             XRA  A
23d2                          cd ee 0f       CALL 0fee
23d5                          2d             DCR  L
23d6                          c2 f2 18       JNZ  18f2
23d9                          e1             POP  HL
23da                          e5             PUSH HL
23db                          3e e6          MVI  A, e6
23dd                          cd ee 0f       CALL 0fee
23e0                          3e d3          MVI  A, d3
23e2                          c3 fd 0f       JMP  0ffd
23e5                          32 4d 02       STA  (024d)
23e8                          cd 9e 03       CALL 039e
23eb                          c3 a2 19       JMP  19a2
23ee                          00             NOOP
23ef                          cd e1 0f       CALL 0fe1
23f2                          fe d3          CPI  d3
23f4                          ca 23 19       JZ   1923
23f7                          06 03          MVI  B, 3
23f9                          3e 08          MVI  A, 8
23fb                          cd e1 0f       CALL 0fe1
23fe                          fe d3          CPI  d3
2400                          c2 0b 19       JNZ  190b
2403                          05             DCR  B
2404                          c2 19 19       JNZ  1919
2407                          21 4d 02       LXI  HL, 024d
240a                          3e 08          MVI  A, 8
240c                          cd e1 0f       CALL 0fe1
240f                          be             CMP  (HL)
2410                          c2 0b 19       JNZ  190b
2413                          2a 43 02       LHLD (0243
2416                          06 03          MVI  B, 3
2418                          3e 08          MVI  A, 8
241a                          cd e1 0f       CALL 0fe1
241d                          77             MOV  (HL),A
241e                          cd bb 02       CALL 02bb
2421                          7e             MOV  A,(HL)
2422                          b7             ORA  A
2423                          23             INX  HL
2424                          c2 36 19       JNZ  1936
2427                          05             DCR  B
2428                          c2 38 19       JNZ  1938
242b                          c3 51 10       JMP  1051
242e                          3f             CMC
242f                          00             NOOP
2430                          cd 88 18       CALL 1888
2433                          e3             XTHL
2434                          2b             DCX  HL
2435                          7c             MOV  A,H
2436                          b5             ORA  L
2437                          ca 71 19       JZ   1971
243a                          e3             XTHL
243b                          09             DAD  BC
243c                          da 50 19       JC   1950
243f                          cd b1 18       CALL 18b1
2442                          e3             XTHL
2443                          2b             DCX  HL
2444                          7c             MOV  A,H
2445                          b5             ORA  L
2446                          ca 71 19       JZ   1971
2449                          e3             XTHL
244a                          19             DAD  DE
244b                          d2 5f 19       JNC  195f
244e                          c3 50 19       JMP  1950
2451                          e1             POP  HL
2452                          e1             POP  HL
2453                          3a 08 80       LDA  (8008)
2456                          b7             ORA  A
2457                          c8             RZ
2458                          af             XRA  A
2459                          32 08 80       STA  (8008)
245c                          c3 07 1a       JMP  1a07
245f                          cd 37 c3       CALL c337
2462                          fe 08          CPI  8
2464                          ca 8d 19       JZ   198d
2467                          fe 88          CPI  88
2469                          ca 98 19       JZ   1998
246c                          c9             RET
246d                          0e 08          MVI  C, 8
246f                          cd 37 c0       CALL c037
2472                          0e 7f          MVI  C, 7f
2474                          cd 37 c0       CALL c037
2477                          c9             RET
2478                          3e 03          MVI  A, 3
247a                          c9             RET
247b                          3a 01 ff       LDA  (ff01)
247e                          2f             CMA
247f                          e6             ANI  80
2480                          80             ADC  B
2481                          c9             RET
2482                          06 03          MVI  B, 3
2484                          af             XRA  A
2485                          32 f3 8f       STA  (8ff3)
2488                          3e ff          MVI  A, ff
248a                          c3 0f 19       JMP  190f
248d                          e6             ANI  7f
248e                          7f             MOV  A,A
248f                          4f             MOV  C,A
2490                          3a fc 8f       LDA  (8ffc)
2493                          fe f8          CPI  f8
2495                          00             NOOP
2496                          d4 bd 19       CNC  19bd
2499                          cd 37 c0       CALL c037
249c                          c9             RET
249d                          79             MOV  A,C
249e                          fe 0a          CPI  a
24a0                          ca ce 19       JZ   19ce
24a3                          fe 1a          CPI  1a
24a5                          ca ce 19       JZ   19ce
24a8                          3a fd 8f       LDA  (8ffd)
24ab                          fe be          CPI  be
24ad                          d8             RC
24ae                          e5             PUSH HL
24af                          d5             PUSH DE
24b0                          c5             PUSH BC
24b1                          21 00 90       LXI  HL, 9000
24b4                          11 0a 90       LXI  DE, 900a
24b7                          06 30          MVI  B, 30
24b9                          0e 78          MVI  C, 78
24bb                          1a             LDAX DE
24bc                          77             MOV  (HL),A
24bd                          23             INX  HL
24be                          13             INX  DE
24bf                          1a             LDAX DE
24c0                          77             MOV  (HL),A
24c1                          23             INX  HL
24c2                          13             INX  DE
24c3                          0d             DCR  C
24c4                          c2 db 19       JNZ  19db
24c7                          3a fa 8f       LDA  (8ffa)
24ca                          0e 10          MVI  C, 10
24cc                          77             MOV  (HL),A
24cd                          23             INX  HL
24ce                          13             INX  DE
24cf                          0d             DCR  C
24d0                          c2 ec 19       JNZ  19ec
24d3                          05             DCR  B
24d4                          c2 d9 19       JNZ  19d9
24d7                          21 f8 00       LXI  HL, 00f8
24da                          22 fc 8f       SHLD (8ffc)
24dd                          c1             POP  BC
24de                          d1             POP  DE
24df                          e1             POP  HL
24e0                          79             MOV  A,C
24e1                          fe 0a          CPI  a
24e3                          c0             RNZ
24e4                          0e 1a          MVI  C, 1a
24e6                          c9             RET
24e7                          cd e5 18       CALL 18e5
24ea                          c9             RET
24eb                          3a 0a 80       LDA  (800a)
24ee                          21 ff ff       LXI  HL, ffff
24f1                          0b             DCX  BC
24f2                          b7             ORA  A
24f3                          c2 50 19       JNZ  1950
24f6                          3a 09 80       LDA  (8009)
24f9                          b7             ORA  A
24fa                          c2 50 19       JNZ  1950
24fd                          c3 71 19       JMP  1971
2500                          af             XRA  A
2501                          32 08 80       STA  (8008)
2504                          c3 42 17       JMP  1742
2507                          cd 66 09       CALL 0966
250a                          ef             RST 5
250b                          cd 49 06       CALL 0649
250e                          d5             PUSH DE
250f                          cf             RST 1
2510                          2c             INR  L
2511                          cd 66 09       CALL 0966
2514                          ef             RST 5
2515                          cd 49 06       CALL 0649
2518                          d5             PUSH DE
2519                          c1             POP  BC
251a                          d1             POP  DE
251b                          e5             PUSH HL
251c                          af             XRA  A
251d                          b8             CMP  B
251e                          c2 5c 06       JNZ  065c
2521                          3c             INR  A
2522                          ba             CMP  D
2523                          da 5c 06       JC   065c
2526                          2a 00 80       LHLD (8000
2529                          cd 83 18       CALL 1883
252c                          19             DAD  DE
252d                          22 04 80       SHLD (8004)
2530                          2a 02 80       LHLD (8002
2533                          26 ff          MVI  H, ff
2535                          23             INX  HL
2536                          00             NOOP
2537                          00             NOOP
2538                          09             DAD  BC
2539                          22 06 80       SHLD (8006)
253c                          c3 41 18       JMP  1841
253f                          00             NOOP
2540                          11 7f 1a       LXI  DE, 1a7f
2543                          d6 82          SUI  82
2545                          ca 74 1a       JZ   1a74
2548                          4f             MOV  C,A
2549                          1a             LDAX DE
254a                          13             INX  DE
254b                          b7             ORA  A
254c                          c2 69 1a       JNZ  1a69
254f                          79             MOV  A,C
2550                          3d             DCR  A
2551                          c3 65 1a       JMP  1a65
2554                          1a             LDAX DE
2555                          77             MOV  (HL),A
2556                          13             INX  DE
2557                          23             INX  HL
2558                          b7             ORA  A
2559                          c2 74 1a       JNZ  1a74
255c                          c3 d9 07       JMP  07d9
255f                          98             SBB  B
2560                          00             NOOP
2561                          95             SUB  L
2562                          b2             ORA  D
2563                          28             NOOP
2564                          30             NOOP
2565                          29             DAD  HL
2566                          00             NOOP
2567                          9c             SBB  H
2568                          00             NOOP
2569                          9a             SBB  D
256a                          00             NOOP
256b                          9b             SBB  E
256c                          00             NOOP
256d                          89             ADC  C
256e                          00             NOOP
256f                          8e             ADC  (HL)
2570                          00             NOOP
2571                          97             SUB  A
2572                          00             NOOP
2573                          00             NOOP
2574                          00             NOOP
2575                          00             NOOP
2576                          00             NOOP
2577                          21 4d 1b       LXI  HL, 1b4d
257a                          22 e5 8f       SHLD (8fe5)
257d                          c3 20 1a       JMP  1a20
2580                          21 d1 c9       LXI  HL, c9d1
2583                          22 2b 05       SHLD (052b)
2586                          21 5a 1b       LXI  HL, 1b5a
2589                          cd 38 c4       CALL c438
258c                          cd 80 04       CALL 0480
258f                          21 cf 01       LXI  HL, 01cf
2592                          cd 61 06       CALL 0661
2595                          e5             PUSH HL
2596                          cd 85 03       CALL 0385
2599                          e1             POP  HL
259a                          03             INX  BC
259b                          03             INX  BC
259c                          03             INX  BC
259d                          03             INX  BC
259e                          cd 37 c3       CALL c337
25a1                          fe 08          CPI  8
25a3                          ca 11 1b       JZ   1b11
25a6                          fe 18          CPI  18
25a8                          ca e2 1a       JZ   1ae2
25ab                          fe 0d          CPI  d
25ad                          ca 35 1b       JZ   1b35
25b0                          fe 1a          CPI  1a
25b2                          ca 32 1b       JZ   1b32
25b5                          fe 20          CPI  20
25b7                          da be 1a       JC   1abe
25ba                          cd ce 04       CALL 04ce
25bd                          77             MOV  (HL),A
25be                          23             INX  HL
25bf                          c3 be 1a       JMP  1abe
25c2                          0a             LDAX BC
25c3                          b7             ORA  A
25c4                          ca be 1a       JZ   1abe
25c7                          03             INX  BC
25c8                          77             MOV  (HL),A
25c9                          23             INX  HL
25ca                          f2 f5 1a       JP   1af5
25cd                          11 fb 1a       LXI  DE, 1afb
25d0                          c5             PUSH BC
25d1                          d5             PUSH DE
25d2                          c3 18 05       JMP  0518
25d5                          cd ce 04       CALL 04ce
25d8                          c3 be 1a       JMP  1abe
25db                          c1             POP  BC
25dc                          7e             MOV  A,(HL)
25dd                          b7             ORA  A
25de                          fa 08 1b       JM   1b08
25e1                          cd ce 04       CALL 04ce
25e4                          23             INX  HL
25e5                          c3 fc 1a       JMP  1afc
25e8                          e6             ANI  7f
25e9                          7f             MOV  A,A
25ea                          cd ce 04       CALL 04ce
25ed                          eb             XCHG
25ee                          c3 be 1a       JMP  1abe
25f1                          3a fd 8f       LDA  (8ffd)
25f4                          b7             ORA  A
25f5                          ca be 1a       JZ   1abe
25f8                          2b             DCX  HL
25f9                          cd 40 1b       CALL 1b40
25fc                          7e             MOV  A,(HL)
25fd                          b7             ORA  A
25fe                          f2 be 1a       JP   1abe
2601                          c5             PUSH BC
2602                          cd 18 05       CALL 0518
2605                          c1             POP  BC
2606                          7e             MOV  A,(HL)
2607                          b7             ORA  A
2608                          fa 0d 1b       JM   1b0d
260b                          cd 40 1b       CALL 1b40
260e                          23             INX  HL
260f                          c3 26 1b       JMP  1b26
2612                          21 cf 01       LXI  HL, 01cf
2615                          e5             PUSH HL
2616                          21 7e b7       LXI  HL, b77e
2619                          22 2b 05       SHLD (052b)
261c                          e1             POP  HL
261d                          c3 d7 07       JMP  07d7
2620                          e5             PUSH HL
2621                          c5             PUSH BC
2622                          21 56 1b       LXI  HL, 1b56
2625                          cd 38 c4       CALL c438
2628                          c1             POP  BC
2629                          e1             POP  HL
262a                          c9             RET
262b                          00             NOOP
262c                          00             NOOP
262d                          4f             MOV  C,A
262e                          cd 9b 19       CALL 199b
2631                          79             MOV  A,C
2632                          c8             RZ
2633                          c3 4e 1b       JMP  1b4e
2636                          08             NOOP
2637                          7f             MOV  A,A
2638                          08             NOOP
2639                          00             NOOP
263a                          45             MOV  B,L
263b                          44             MOV  B,H
263c                          49             MOV  C,C
263d                          54             MOV  D,H
263e                          20             NOOP
263f                          00             NOOP
2640                          ff             RST 7
2641                          ff             RST 7
2642                          ff             RST 7
2643                          ff             RST 7
2644                          ff             RST 7
2645                          ff             RST 7
2646                          ff             RST 7
2647                          ff             RST 7
2648                          ff             RST 7
2649                          ff             RST 7
264a                          ff             RST 7
264b                          ff             RST 7
264c                          ff             RST 7
264d                          ff             RST 7
264e                          ff             RST 7
264f                          ff             RST 7
2650                          ff             RST 7
2651                          ff             RST 7
2652                          ff             RST 7
2653                          ff             RST 7
2654                          ff             RST 7
2655                          ff             RST 7
2656                          ff             RST 7
2657                          ff             RST 7
2658                          ff             RST 7
2659                          ff             RST 7
265a                          ff             RST 7
265b                          ff             RST 7
265c                          ff             RST 7
265d                          ff             RST 7
265e                          ff             RST 7
265f                          ff             RST 7
2660                          ff             RST 7
2661                          ff             RST 7
2662                          ff             RST 7
2663                          ff             RST 7
2664                          ff             RST 7
2665                          ff             RST 7
2666                          ff             RST 7
2667                          ff             RST 7
2668                          ff             RST 7
2669                          ff             RST 7
266a                          ff             RST 7
266b                          ff             RST 7
266c                          ff             RST 7
266d                          ff             RST 7
266e                          ff             RST 7
266f                          ff             RST 7
2670                          ff             RST 7
2671                          ff             RST 7
2672                          ff             RST 7
2673                          ff             RST 7
2674                          ff             RST 7
2675                          ff             RST 7
2676                          ff             RST 7
2677                          ff             RST 7
2678                          ff             RST 7
2679                          ff             RST 7
267a                          ff             RST 7
267b                          ff             RST 7
267c                          ff             RST 7
267d                          ff             RST 7
267e                          ff             RST 7
267f                          ff             RST 7
2680                          ff             RST 7
2681                          ff             RST 7
2682                          ff             RST 7
2683                          ff             RST 7
2684                          ff             RST 7
2685                          ff             RST 7
2686                          ff             RST 7
2687                          ff             RST 7
2688                          ff             RST 7
2689                          ff             RST 7
268a                          ff             RST 7
268b                          ff             RST 7
268c                          ff             RST 7
268d                          ff             RST 7
268e                          ff             RST 7
268f                          ff             RST 7
2690                          ff             RST 7
2691                          ff             RST 7
2692                          ff             RST 7
2693                          ff             RST 7
2694                          ff             RST 7
2695                          ff             RST 7
2696                          ff             RST 7
2697                          ff             RST 7
2698                          ff             RST 7
2699                          ff             RST 7
269a                          ff             RST 7
269b                          ff             RST 7
269c                          ff             RST 7
269d                          ff             RST 7
269e                          ff             RST 7
269f                          ff             RST 7
26a0                          ff             RST 7
26a1                          ff             RST 7
26a2                          ff             RST 7
26a3                          ff             RST 7
26a4                          ff             RST 7
26a5                          ff             RST 7
26a6                          ff             RST 7
26a7                          ff             RST 7
26a8                          ff             RST 7
26a9                          ff             RST 7
26aa                          ff             RST 7
26ab                          ff             RST 7
26ac                          ff             RST 7
26ad                          ff             RST 7
26ae                          ff             RST 7
26af                          ff             RST 7
26b0                          ff             RST 7
26b1                          ff             RST 7
26b2                          ff             RST 7
26b3                          ff             RST 7
26b4                          ff             RST 7
26b5                          ff             RST 7
26b6                          ff             RST 7
26b7                          ff             RST 7
26b8                          ff             RST 7
26b9                          ff             RST 7
26ba                          ff             RST 7
26bb                          ff             RST 7
26bc                          ff             RST 7
26bd                          ff             RST 7
26be                          ff             RST 7
26bf                          ff             RST 7
26c0                          ff             RST 7
26c1                          ff             RST 7
26c2                          ff             RST 7
26c3                          ff             RST 7
26c4                          ff             RST 7
26c5                          ff             RST 7
26c6                          ff             RST 7
26c7                          ff             RST 7
26c8                          ff             RST 7
26c9                          ff             RST 7
26ca                          ff             RST 7
26cb                          ff             RST 7
26cc                          ff             RST 7
26cd                          ff             RST 7
26ce                          ff             RST 7
26cf                          ff             RST 7
26d0                          ff             RST 7
26d1                          ff             RST 7
26d2                          ff             RST 7
26d3                          ff             RST 7
26d4                          ff             RST 7
26d5                          ff             RST 7
26d6                          ff             RST 7
26d7                          ff             RST 7
26d8                          ff             RST 7
26d9                          ff             RST 7
26da                          ff             RST 7
26db                          ff             RST 7
26dc                          ff             RST 7
26dd                          ff             RST 7
26de                          ff             RST 7
26df                          ff             RST 7
26e0                          ff             RST 7
26e1                          ff             RST 7
26e2                          ff             RST 7
26e3                          ff             RST 7
26e4                          ff             RST 7
26e5                          ff             RST 7
26e6                          ff             RST 7
26e7                          ff             RST 7
26e8                          ff             RST 7
26e9                          ff             RST 7
26ea                          ff             RST 7
26eb                          ff             RST 7
26ec                          ff             RST 7
26ed                          ff             RST 7
26ee                          ff             RST 7
26ef                          ff             RST 7
26f0                          ff             RST 7
26f1                          ff             RST 7
26f2                          ff             RST 7
26f3                          ff             RST 7
26f4                          ff             RST 7
26f5                          ff             RST 7
26f6                          ff             RST 7
26f7                          ff             RST 7
26f8                          ff             RST 7
26f9                          ff             RST 7
26fa                          ff             RST 7
26fb                          ff             RST 7
26fc                          ff             RST 7
26fd                          ff             RST 7
26fe                          ff             RST 7
26ff                          ff             RST 7
2700                          ff             RST 7
2701                          ff             RST 7
2702                          ff             RST 7
2703                          ff             RST 7
2704                          ff             RST 7
2705                          ff             RST 7
2706                          ff             RST 7
2707                          ff             RST 7
2708                          ff             RST 7
2709                          ff             RST 7
270a                          ff             RST 7
270b                          ff             RST 7
270c                          ff             RST 7
270d                          ff             RST 7
270e                          ff             RST 7
270f                          ff             RST 7
2710                          ff             RST 7
2711                          ff             RST 7
2712                          ff             RST 7
2713                          ff             RST 7
2714                          ff             RST 7
2715                          ff             RST 7
2716                          ff             RST 7
2717                          ff             RST 7
2718                          ff             RST 7
2719                          ff             RST 7
271a                          ff             RST 7
271b                          ff             RST 7
271c                          ff             RST 7
271d                          ff             RST 7
271e                          ff             RST 7
271f                          ff             RST 7
2720                          ff             RST 7
2721                          ff             RST 7
2722                          ff             RST 7
2723                          ff             RST 7
2724                          ff             RST 7
2725                          ff             RST 7
2726                          ff             RST 7
2727                          ff             RST 7
2728                          ff             RST 7
2729                          ff             RST 7
272a                          ff             RST 7
272b                          ff             RST 7
272c                          ff             RST 7
272d                          ff             RST 7
272e                          ff             RST 7
272f                          ff             RST 7
2730                          ff             RST 7
2731                          ff             RST 7
2732                          ff             RST 7
2733                          ff             RST 7
2734                          ff             RST 7
2735                          ff             RST 7
2736                          ff             RST 7
2737                          ff             RST 7
2738                          ff             RST 7
2739                          ff             RST 7
273a                          ff             RST 7
273b                          ff             RST 7
273c                          ff             RST 7
273d                          ff             RST 7
273e                          ff             RST 7
273f                          ff             RST 7
2740                          ff             RST 7
2741                          ff             RST 7
2742                          ff             RST 7
2743                          ff             RST 7
2744                          ff             RST 7
2745                          ff             RST 7
2746                          ff             RST 7
2747                          ff             RST 7
2748                          ff             RST 7
2749                          ff             RST 7
274a                          ff             RST 7
274b                          ff             RST 7
274c                          ff             RST 7
274d                          ff             RST 7
274e                          ff             RST 7
274f                          ff             RST 7
2750                          ff             RST 7
2751                          ff             RST 7
2752                          ff             RST 7
2753                          ff             RST 7
2754                          ff             RST 7
2755                          ff             RST 7
2756                          ff             RST 7
2757                          ff             RST 7
2758                          ff             RST 7
2759                          ff             RST 7
275a                          ff             RST 7
275b                          ff             RST 7
275c                          ff             RST 7
275d                          ff             RST 7
275e                          ff             RST 7
275f                          ff             RST 7
2760                          ff             RST 7
2761                          ff             RST 7
2762                          ff             RST 7
2763                          ff             RST 7
2764                          ff             RST 7
2765                          ff             RST 7
2766                          ff             RST 7
2767                          ff             RST 7
2768                          ff             RST 7
2769                          ff             RST 7
276a                          ff             RST 7
276b                          ff             RST 7
276c                          ff             RST 7
276d                          ff             RST 7
276e                          ff             RST 7
276f                          ff             RST 7
2770                          ff             RST 7
2771                          ff             RST 7
2772                          ff             RST 7
2773                          ff             RST 7
2774                          ff             RST 7
2775                          ff             RST 7
2776                          ff             RST 7
2777                          ff             RST 7
2778                          ff             RST 7
2779                          ff             RST 7
277a                          ff             RST 7
277b                          ff             RST 7
277c                          ff             RST 7
277d                          ff             RST 7
277e                          ff             RST 7
277f                          ff             RST 7
2780                          ff             RST 7
2781                          ff             RST 7
2782                          ff             RST 7
2783                          ff             RST 7
2784                          ff             RST 7
2785                          ff             RST 7
2786                          ff             RST 7
2787                          ff             RST 7
2788                          ff             RST 7
2789                          ff             RST 7
278a                          ff             RST 7
278b                          ff             RST 7
278c                          ff             RST 7
278d                          ff             RST 7
278e                          ff             RST 7
278f                          ff             RST 7
2790                          ff             RST 7
2791                          ff             RST 7
2792                          ff             RST 7
2793                          ff             RST 7
2794                          ff             RST 7
2795                          ff             RST 7
2796                          ff             RST 7
2797                          ff             RST 7
2798                          ff             RST 7
2799                          ff             RST 7
279a                          ff             RST 7
279b                          ff             RST 7
279c                          ff             RST 7
279d                          ff             RST 7
279e                          ff             RST 7
279f                          ff             RST 7
27a0                          ff             RST 7
27a1                          ff             RST 7
27a2                          ff             RST 7
27a3                          ff             RST 7
27a4                          ff             RST 7
27a5                          ff             RST 7
27a6                          ff             RST 7
27a7                          ff             RST 7
27a8                          ff             RST 7
27a9                          ff             RST 7
27aa                          ff             RST 7
27ab                          ff             RST 7
27ac                          ff             RST 7
27ad                          ff             RST 7
27ae                          ff             RST 7
27af                          ff             RST 7
27b0                          ff             RST 7
27b1                          ff             RST 7
27b2                          ff             RST 7
27b3                          ff             RST 7
27b4                          ff             RST 7
27b5                          ff             RST 7
27b6                          ff             RST 7
27b7                          ff             RST 7
27b8                          ff             RST 7
27b9                          ff             RST 7
27ba                          ff             RST 7
27bb                          ff             RST 7
27bc                          ff             RST 7
27bd                          ff             RST 7
27be                          ff             RST 7
27bf                          ff             RST 7
27c0                          ff             RST 7
27c1                          ff             RST 7
27c2                          ff             RST 7
27c3                          ff             RST 7
27c4                          ff             RST 7
27c5                          ff             RST 7
27c6                          ff             RST 7
27c7                          ff             RST 7
27c8                          ff             RST 7
27c9                          ff             RST 7
27ca                          ff             RST 7
27cb                          ff             RST 7
27cc                          ff             RST 7
27cd                          ff             RST 7
27ce                          ff             RST 7
27cf                          ff             RST 7
27d0                          ff             RST 7
27d1                          ff             RST 7
27d2                          ff             RST 7
27d3                          ff             RST 7
27d4                          ff             RST 7
27d5                          ff             RST 7
27d6                          ff             RST 7
27d7                          ff             RST 7
27d8                          ff             RST 7
27d9                          ff             RST 7
27da                          ff             RST 7
27db                          ff             RST 7
27dc                          ff             RST 7
27dd                          ff             RST 7
27de                          ff             RST 7
27df                          ff             RST 7
27e0                          ff             RST 7
27e1                          ff             RST 7
27e2                          ff             RST 7
27e3                          ff             RST 7
27e4                          ff             RST 7
27e5                          ff             RST 7
27e6                          ff             RST 7
27e7                          ff             RST 7
27e8                          ff             RST 7
27e9                          ff             RST 7
27ea                          ff             RST 7
27eb                          ff             RST 7
27ec                          ff             RST 7
27ed                          ff             RST 7
27ee                          ff             RST 7
27ef                          ff             RST 7
27f0                          ff             RST 7
27f1                          ff             RST 7
27f2                          ff             RST 7
27f3                          ff             RST 7
27f4                          ff             RST 7
27f5                          ff             RST 7
27f6                          ff             RST 7
27f7                          ff             RST 7
27f8                          ff             RST 7
27f9                          ff             RST 7
27fa                          ff             RST 7
27fb                          ff             RST 7
27fc                          ff             RST 7
27fd                          ff             RST 7
27fe                          ff             RST 7
27ff                          ff             RST 7